Certificate:
    Data:
        Version: 3 (0x2)
        Serial Number: 3 (0x3)
    Signature Algorithm: sha1WithRSAEncryption
        Issuer: O=My Company, OU=My Unit, L=My Town, ST=My State, C=US, CN=Sample CA
        Validity
            Not Before: Jun 13 18:09:03 2016 GMT
            Not After : Jun 11 18:09:03 2026 GMT
        Subject: C=US, ST=My State, O=My Company, OU=cte_prod:server1, CN=localhost
        Subject Public Key Info:
            Public Key Algorithm: rsaEncryption
                Public-Key: (4096 bit)
                Modulus:
                    00:a6:83:02:23:60:04:d1:01:b2:66:28:3a:47:60:
                    9b:36:42:27:75:8a:32:db:62:f8:95:d6:9a:68:95:
                    24:9d:d6:4d:17:64:4e:5d:88:d3:66:c6:89:43:92:
                    87:e4:3d:fd:ff:6a:a3:42:33:98:8d:a6:2e:d2:cd:
                    3c:80:c0:71:c7:7a:73:5e:d7:6f:d0:86:b3:1d:3c:
                    87:72:38:c4:1d:c4:66:b6:96:3f:08:9f:5c:0f:16:
                    29:aa:cb:73:e7:f6:04:40:bd:a7:6a:f5:10:f7:7f:
                    00:0f:03:63:0d:81:c9:0f:71:d4:39:c5:61:09:86:
                    80:b5:88:d6:b9:51:50:7b:f9:a6:1e:6d:08:62:30:
                    85:76:07:cd:35:cd:33:17:c4:95:42:60:bc:eb:62:
                    9b:c0:ad:32:26:43:8c:fd:ba:d6:d2:8f:13:9a:f5:
                    3f:d9:f4:ea:b4:d7:03:a6:e4:a1:23:ad:ec:45:7d:
                    bc:59:20:3e:e8:2a:3c:9e:d5:b2:a0:f5:cc:e3:54:
                    3a:ac:e2:57:7b:76:fc:01:f7:a0:9c:be:c7:92:1f:
                    76:e3:e8:b6:aa:49:9f:50:2f:dd:ed:e3:0e:52:33:
                    13:c9:61:6d:53:46:9c:4c:0c:cf:b3:dd:50:b0:c0:
                    1e:89:82:e7:0f:9d:ff:4c:64:77:d0:b1:f1:56:06:
                    f3:20:0b:ca:39:1c:95:19:e3:d9:32:ca:96:34:23:
                    6e:df:52:47:e9:f5:ac:f9:f5:e9:91:ac:9d:dc:ae:
                    36:1d:21:bf:e1:b3:68:1b:4f:93:2e:2a:a0:6c:25:
                    2e:71:a4:bc:89:24:b6:89:f4:2f:36:91:76:9d:b4:
                    95:14:83:d1:2e:4b:82:31:de:5d:df:c1:91:95:d6:
                    e6:ac:18:a5:9a:1d:13:21:93:c7:ff:88:b3:89:55:
                    8b:41:ea:dc:1a:b8:a6:48:a4:2a:e8:4a:e2:3d:f2:
                    03:fb:a0:fd:11:ba:26:f5:d6:87:52:bc:21:f9:53:
                    d6:c5:7a:9a:1b:50:4d:9b:88:79:ae:b8:0b:a9:5d:
                    4a:5f:1b:db:3c:6a:ec:f2:f7:2c:b3:52:2a:85:9f:
                    4b:d0:6b:45:7e:54:cc:72:50:44:66:ff:b8:5d:13:
                    94:3f:14:dc:8c:f6:aa:ca:28:a3:ac:bd:97:a2:c3:
                    a4:ae:ee:fd:38:1c:52:30:d8:f2:44:54:6f:b4:cf:
                    1a:00:c0:9e:49:5d:49:34:b3:8e:07:40:65:a2:a5:
                    6d:90:6d:82:f8:58:17:41:ac:4e:08:be:15:de:d5:
                    fe:c3:f4:20:a1:f9:47:c8:a2:ca:82:d8:80:36:d3:
                    59:72:52:29:e4:c1:81:da:9e:ef:51:70:50:46:1c:
                    f4:c6:63
                Exponent: 65537 (0x10001)
        X509v3 extensions:
            X509v3 Basic Constraints: 
                CA:FALSE
            X509v3 Subject Key Identifier: 
                B6:9E:B9:D0:1A:BB:1E:20:77:8B:1E:74:93:C3:7D:E3:EB:62:B8:B3
            X509v3 Extended Key Usage: 
                TLS Web Server Authentication, TLS Web Client Authentication
    Signature Algorithm: sha1WithRSAEncryption
         3c:cd:d2:a8:03:33:55:0a:2b:e2:5b:fe:a1:00:4e:74:d5:30:
         70:8b:06:65:b8:f0:e6:27:f9:eb:5d:18:00:68:e0:5e:03:b8:
         77:0a:f7:01:e7:85:c3:27:ef:58:6f:49:85:d3:c5:c7:7e:be:
         c6:63:32:f2:40:b2:e7:37:3a:0c:9d:17:6d:02:16:cd:36:80:
         e5:26:d9:79:7d:0f:19:03:15:e8:ee:d8:95:20:24:97:34:d7:
         52:f4:7b:a8:92:b8:f6:cb:20:d8:3a:00:5d:31:18:78:be:03:
         67:43:a4:9f:87:a1:77:7a:1a:d1:45:62:7d:be:30:7c:21:f6:
         f2:16:fc:a4:23:2b:ee:5e:4d:ea:d0:43:72:ed:bc:b4:d5:14:
         92:58:84:89:50:80:26:1a:10:2d:eb:5e:e3:bb:a0:a1:02:1e:
         5f:01:ef:fd:61:8e:66:ef:ce:ab:31:a2:5b:dc:e9:f8:83:75:
         86:42:07:dd:e9:c7:49:45:46:35:a1:84:8e:82:4f:e8:ba:14:
         f3:35:63:e6:2b:ad:4a:cf:a8:78:6c:14:44:19:a5:e5:96:c9:
         df:c9:7e:8c:8c:a8:b4:c6:95:c2:00:d7:8c:12:2d:cf:69:e6:
         19:7b:a3:62:cc:a4:83:05:6a:f7:5f:9c:a4:e8:fb:92:91:0e:
         57:20:25:ea:4a:89:98:26:df:fb:55:37:cc:0d:9b:9d:de:c1:
         3a:47:58:7c:50:ca:c9:76:52:36:ba:3c:0f:50:a1:fd:b9:25:
         36:fd:58:16:6b:f3:86:b8:43:25:36:ea:cf:ba:a4:ac:33:f8:
         a3:99:09:bf:45:66:e4:12:65:90:09:86:63:d0:3c:08:bd:52:
         49:d5:12:f0:19:19:25:4f:31:ba:9b:0b:ec:ff:59:92:93:83:
         a8:34:eb:ef:c7:c6:ca:ed:7f:a8:48:fa:5e:ea:33:81:af:20:
         04:7f:e3:a0:e1:52:83:02:6c:98:29:0e:f9:85:17:ee:9f:15:
         d4:8f:b5:5d:20:51:91:ae:4a:2a:c2:3a:81:37:3f:a9:04:8a:
         fc:18:af:b3:57:13:db:5d:12:87:ad:1a:80:94:ba:a1:9f:58:
         a9:d8:e3:bb:e2:66:cc:96:f8:fa:7b:40:de:79:d2:7f:91:80:
         63:12:51:5a:4c:af:74:be:77:1a:db:f3:5f:88:a7:c8:22:59:
         37:17:f3:21:04:eb:f9:e8:9f:e2:c2:db:99:d2:85:9c:08:34:
         3e:9b:3a:5b:53:b9:2f:3a:d7:53:12:9c:a8:28:4b:ca:b9:79:
         c8:22:f5:1f:a6:9b:72:32:48:0b:a1:c0:e1:27:8f:69:b4:90:
         ff:49:08:f4:52:80:0b:91
-----BEGIN CERTIFICATE-----
MIIFlzCCA3+gAwIBAgIBAzANBgkqhkiG9w0BAQUFADBtMRMwEQYDVQQKEwpNeSBD
b21wYW55MRAwDgYDVQQLEwdNeSBVbml0MRAwDgYDVQQHEwdNeSBUb3duMREwDwYD
VQQIEwhNeSBTdGF0ZTELMAkGA1UEBhMCVVMxEjAQBgNVBAMTCVNhbXBsZSBDQTAe
Fw0xNjA2MTMxODA5MDNaFw0yNjA2MTExODA5MDNaMGQxCzAJBgNVBAYTAlVTMREw
DwYDVQQIEwhNeSBTdGF0ZTETMBEGA1UEChMKTXkgQ29tcGFueTEZMBcGA1UECxQQ
Y3RlX3Byb2Q6c2VydmVyMTESMBAGA1UEAxMJbG9jYWxob3N0MIICIjANBgkqhkiG
9w0BAQEFAAOCAg8AMIICCgKCAgEApoMCI2AE0QGyZig6R2CbNkIndYoy22L4ldaa
aJUkndZNF2ROXYjTZsaJQ5KH5D39/2qjQjOYjaYu0s08gMBxx3pzXtdv0IazHTyH
cjjEHcRmtpY/CJ9cDxYpqstz5/YEQL2navUQ938ADwNjDYHJD3HUOcVhCYaAtYjW
uVFQe/mmHm0IYjCFdgfNNc0zF8SVQmC862KbwK0yJkOM/brW0o8TmvU/2fTqtNcD
puShI63sRX28WSA+6Co8ntWyoPXM41Q6rOJXe3b8AfegnL7Hkh924+i2qkmfUC/d
7eMOUjMTyWFtU0acTAzPs91QsMAeiYLnD53/TGR30LHxVgbzIAvKORyVGePZMsqW
NCNu31JH6fWs+fXpkayd3K42HSG/4bNoG0+TLiqgbCUucaS8iSS2ifQvNpF2nbSV
FIPRLkuCMd5d38GRldbmrBilmh0TIZPH/4iziVWLQercGrimSKQq6EriPfID+6D9
Ebom9daHUrwh+VPWxXqaG1BNm4h5rrgLqV1KXxvbPGrs8vcss1IqhZ9L0GtFflTM
clBEZv+4XROUPxTcjPaqyiijrL2XosOkru79OBxSMNjyRFRvtM8aAMCeSV1JNLOO
B0BloqVtkG2C+FgXQaxOCL4V3tX+w/QgoflHyKLKgtiANtNZclIp5MGB2p7vUXBQ
Rhz0xmMCAwEAAaNLMEkwCQYDVR0TBAIwADAdBgNVHQ4EFgQUtp650Bq7HiB3ix50
k8N94+tiuLMwHQYDVR0lBBYwFAYIKwYBBQUHAwEGCCsGAQUFBwMCMA0GCSqGSIb3
DQEBBQUAA4ICAQA8zdKoAzNVCiviW/6hAE501TBwiwZluPDmJ/nrXRgAaOBeA7h3
CvcB54XDJ+9Yb0mF08XHfr7GYzLyQLLnNzoMnRdtAhbNNoDlJtl5fQ8ZAxXo7tiV
ICSXNNdS9Huokrj2yyDYOgBdMRh4vgNnQ6Sfh6F3ehrRRWJ9vjB8IfbyFvykIyvu
Xk3q0ENy7by01RSSWISJUIAmGhAt617ju6ChAh5fAe/9YY5m786rMaJb3On4g3WG
Qgfd6cdJRUY1oYSOgk/ouhTzNWPmK61Kz6h4bBREGaXllsnfyX6MjKi0xpXCANeM
Ei3PaeYZe6NizKSDBWr3X5yk6PuSkQ5XICXqSomYJt/7VTfMDZud3sE6R1h8UMrJ
dlI2ujwPUKH9uSU2/VgWa/OGuEMlNurPuqSsM/ijmQm/RWbkEmWQCYZj0DwIvVJJ
1RLwGRklTzG6mwvs/1mSk4OoNOvvx8bK7X+oSPpe6jOBryAEf+Og4VKDAmyYKQ75
hRfunxXUj7VdIFGRrkoqwjqBNz+pBIr8GK+zVxPbXRKHrRqAlLqhn1ip2OO74mbM
lvj6e0DeedJ/kYBjElFaTK90vnca2/NfiKfIIlk3F/MhBOv56J/iwtuZ0oWcCDQ+
mzpbU7kvOtdTEpyoKEvKuXnIIvUfpptyMkgLocDhJ49ptJD/SQj0UoALkQ==
-----END CERTIFICATE-----
