Certificate:
    Data:
        Version: 3 (0x2)
        Serial Number: 2 (0x2)
    Signature Algorithm: sha1WithRSAEncryption
        Issuer: O=My Company, OU=My Unit, L=My Town, ST=My State, C=US, CN=Sample CA
        Validity
            Not Before: Jun 13 18:09:02 2016 GMT
            Not After : Jun 11 18:09:02 2026 GMT
        Subject: C=US, ST=My State, O=My Company, OU=web-admin, CN=localhost
        Subject Public Key Info:
            Public Key Algorithm: rsaEncryption
                Public-Key: (4096 bit)
                Modulus:
                    00:b8:19:7b:19:28:04:8a:ed:d2:1b:ff:df:bd:aa:
                    a3:cb:d3:80:e2:6e:b4:14:33:ed:28:66:d5:58:5c:
                    26:cc:a8:d8:60:bb:0a:df:de:ff:19:43:59:c4:68:
                    1c:e4:32:1d:c1:d2:6f:5e:96:be:c5:ec:24:a3:de:
                    12:8f:b1:aa:23:20:53:81:7b:72:ec:43:23:f0:19:
                    d4:e1:1f:8b:6b:aa:24:21:f7:e7:6b:8b:9d:61:ac:
                    25:61:eb:24:b2:1c:96:23:74:c1:6a:ed:75:61:f1:
                    47:6f:a9:a8:44:d5:2d:e2:1c:d0:7c:14:e8:e6:e5:
                    9b:6c:83:2c:4b:15:d0:37:b3:12:09:b4:54:74:49:
                    39:d1:32:cd:4f:69:b5:ce:59:ea:2d:07:8d:dd:9e:
                    c9:77:9f:29:14:23:ab:40:b6:d0:b8:2a:f1:79:db:
                    f8:e7:82:91:ac:6c:48:64:c4:d8:72:d6:54:e0:27:
                    3e:34:cd:a4:43:b0:c3:5a:be:1a:65:ec:38:d9:0f:
                    85:d9:f2:01:b1:62:58:3c:be:87:be:f5:c4:8d:69:
                    36:40:3e:60:f4:88:13:b7:32:0d:48:a7:4e:84:3b:
                    8f:3d:0c:ec:a1:f4:18:24:4c:58:f0:9f:4e:8e:67:
                    ea:3e:8d:25:e6:db:ed:0d:aa:b2:ec:7c:1b:46:9e:
                    e0:6e:27:0e:2c:d7:0d:b9:d5:f7:b4:d3:22:c4:40:
                    04:78:d9:ea:59:db:cb:9e:3b:40:c0:a3:42:37:35:
                    9a:e5:5e:fe:d7:de:1a:92:ff:aa:ff:76:94:d3:c4:
                    00:3b:60:21:d6:69:fc:df:55:1a:41:69:07:63:d9:
                    cc:50:7c:b2:29:29:56:2f:83:46:42:33:94:c1:5c:
                    51:8a:da:3c:3a:ae:36:ae:71:a0:da:38:0e:21:74:
                    94:40:c2:12:c4:27:d8:d5:a9:e7:9e:12:bf:ad:0e:
                    82:7a:96:10:97:99:a3:04:52:06:60:0c:c1:f8:90:
                    60:68:e5:50:4f:70:84:06:0e:22:29:2b:f3:30:2a:
                    6c:d1:46:b6:12:32:3f:1c:01:22:93:67:97:9a:01:
                    11:cc:79:74:32:aa:b0:dc:8e:2e:b1:b5:78:e8:15:
                    6b:da:2a:21:b2:dd:37:b7:6a:5d:c0:e2:36:f5:86:
                    46:c0:db:fc:1f:cb:ad:09:18:2b:66:1c:a3:32:ef:
                    d0:a8:d4:40:8a:cf:1a:2b:40:86:bd:c4:92:20:1f:
                    4f:d7:ad:ae:97:ab:ff:b2:fb:d3:13:a9:3b:f0:80:
                    7c:ea:9d:88:7a:36:0b:fb:9c:06:95:26:58:44:e0:
                    92:df:38:8d:0c:a3:95:7b:64:33:07:87:03:37:87:
                    02:c5:db
                Exponent: 65537 (0x10001)
        X509v3 extensions:
            X509v3 Basic Constraints: 
                CA:FALSE
            X509v3 Subject Key Identifier: 
                F5:89:5E:62:AD:BA:56:CE:B2:6C:BB:E6:31:21:EA:D7:03:00:DC:98
            X509v3 Extended Key Usage: 
                TLS Web Server Authentication, TLS Web Client Authentication
    Signature Algorithm: sha1WithRSAEncryption
         b5:be:0e:35:c4:bc:ce:8b:58:25:c2:91:4e:46:20:c3:f8:8c:
         09:39:68:19:f5:14:f2:ca:a2:f6:71:a8:91:22:73:a3:2d:53:
         60:f8:26:81:9b:f8:e0:38:15:2c:16:d9:b5:a0:98:e9:f5:54:
         67:bf:ce:9e:35:ff:20:ff:be:42:0f:f1:e1:04:04:e5:88:83:
         9d:60:d0:bc:7c:3e:18:2a:e8:13:48:b1:e7:b9:7d:26:7d:f7:
         0b:6b:33:88:bd:12:37:16:3a:3d:54:a0:bd:f5:37:71:b1:d4:
         f5:05:7c:03:3d:a7:f3:d9:ff:9e:cb:25:78:fd:16:81:48:59:
         b3:d5:99:e3:c2:47:fc:55:ad:10:51:57:d1:26:39:95:05:6b:
         03:0d:5a:ff:5a:92:b7:c7:99:c5:80:2a:37:93:0e:1a:83:c8:
         fd:76:5f:27:7c:76:d0:f9:f5:7e:77:3a:77:9d:5f:50:b7:f2:
         fb:bd:45:72:cc:cb:81:f6:c2:1d:f6:20:10:f4:56:a4:9b:aa:
         78:62:ea:36:44:c6:3d:d4:69:e2:f1:ed:b5:6c:aa:98:37:d1:
         dd:35:b5:c3:51:59:3b:de:d0:d8:b0:66:b5:d4:a0:fc:79:0a:
         1b:c5:c6:7f:d2:f1:f0:c1:45:49:61:5e:e0:fe:a5:36:fe:4a:
         ee:c0:08:94:89:41:bd:1c:3b:ac:87:d2:12:ed:ad:36:a0:85:
         c2:5c:15:4b:96:0d:1b:dd:71:79:8d:f2:f7:58:63:2a:13:7f:
         20:4e:1d:b5:94:ba:49:91:a2:ef:fa:6d:45:e3:da:55:5d:1a:
         40:75:7d:ed:05:b9:8e:ec:d9:b2:f4:32:16:3a:0c:26:90:e7:
         43:7e:95:b6:8a:e0:3a:9d:4a:68:4e:3e:8b:da:f6:aa:ed:6b:
         29:e7:7f:58:17:d4:4e:85:a8:bd:76:03:3f:f9:97:2d:f4:55:
         49:3d:69:c3:19:b3:e8:36:2a:a7:a4:32:7c:c4:bd:1e:1d:31:
         24:f5:5d:a1:e1:68:59:22:ea:da:37:21:c7:97:97:f1:c3:a4:
         3c:bf:7c:72:34:3f:3c:6e:25:46:92:fe:b7:b9:88:66:a4:35:
         1b:80:8a:56:f9:52:26:a2:b2:51:32:51:81:a1:0c:33:bb:7d:
         92:c1:af:65:2d:78:da:3c:9a:ca:8e:fc:cb:48:45:66:a3:1a:
         c3:c6:fa:40:38:4c:d9:d0:d0:56:e3:8f:b3:f1:15:40:21:99:
         07:b2:8b:28:c0:21:27:66:c9:6d:27:9a:18:b4:8d:01:8d:b5:
         7b:b0:ae:85:46:16:e1:11:e9:40:96:85:f7:8a:b6:22:de:0c:
         09:0a:66:14:ca:71:db:61
-----BEGIN CERTIFICATE-----
MIIFkDCCA3igAwIBAgIBAjANBgkqhkiG9w0BAQUFADBtMRMwEQYDVQQKEwpNeSBD
b21wYW55MRAwDgYDVQQLEwdNeSBVbml0MRAwDgYDVQQHEwdNeSBUb3duMREwDwYD
VQQIEwhNeSBTdGF0ZTELMAkGA1UEBhMCVVMxEjAQBgNVBAMTCVNhbXBsZSBDQTAe
Fw0xNjA2MTMxODA5MDJaFw0yNjA2MTExODA5MDJaMF0xCzAJBgNVBAYTAlVTMREw
DwYDVQQIEwhNeSBTdGF0ZTETMBEGA1UEChMKTXkgQ29tcGFueTESMBAGA1UECxMJ
d2ViLWFkbWluMRIwEAYDVQQDEwlsb2NhbGhvc3QwggIiMA0GCSqGSIb3DQEBAQUA
A4ICDwAwggIKAoICAQC4GXsZKASK7dIb/9+9qqPL04DibrQUM+0oZtVYXCbMqNhg
uwrf3v8ZQ1nEaBzkMh3B0m9elr7F7CSj3hKPsaojIFOBe3LsQyPwGdThH4trqiQh
9+dri51hrCVh6ySyHJYjdMFq7XVh8UdvqahE1S3iHNB8FOjm5ZtsgyxLFdA3sxIJ
tFR0STnRMs1PabXOWeotB43dnsl3nykUI6tAttC4KvF52/jngpGsbEhkxNhy1lTg
Jz40zaRDsMNavhpl7DjZD4XZ8gGxYlg8voe+9cSNaTZAPmD0iBO3Mg1Ip06EO489
DOyh9BgkTFjwn06OZ+o+jSXm2+0NqrLsfBtGnuBuJw4s1w251fe00yLEQAR42epZ
28ueO0DAo0I3NZrlXv7X3hqS/6r/dpTTxAA7YCHWafzfVRpBaQdj2cxQfLIpKVYv
g0ZCM5TBXFGK2jw6rjaucaDaOA4hdJRAwhLEJ9jVqeeeEr+tDoJ6lhCXmaMEUgZg
DMH4kGBo5VBPcIQGDiIpK/MwKmzRRrYSMj8cASKTZ5eaARHMeXQyqrDcji6xtXjo
FWvaKiGy3Te3al3A4jb1hkbA2/wfy60JGCtmHKMy79Co1ECKzxorQIa9xJIgH0/X
ra6Xq/+y+9MTqTvwgHzqnYh6Ngv7nAaVJlhE4JLfOI0Mo5V7ZDMHhwM3hwLF2wID
AQABo0swSTAJBgNVHRMEAjAAMB0GA1UdDgQWBBT1iV5irbpWzrJsu+YxIerXAwDc
mDAdBgNVHSUEFjAUBggrBgEFBQcDAQYIKwYBBQUHAwIwDQYJKoZIhvcNAQEFBQAD
ggIBALW+DjXEvM6LWCXCkU5GIMP4jAk5aBn1FPLKovZxqJEic6MtU2D4JoGb+OA4
FSwW2bWgmOn1VGe/zp41/yD/vkIP8eEEBOWIg51g0Lx8Phgq6BNIsee5fSZ99wtr
M4i9EjcWOj1UoL31N3Gx1PUFfAM9p/PZ/57LJXj9FoFIWbPVmePCR/xVrRBRV9Em
OZUFawMNWv9akrfHmcWAKjeTDhqDyP12Xyd8dtD59X53OnedX1C38vu9RXLMy4H2
wh32IBD0VqSbqnhi6jZExj3UaeLx7bVsqpg30d01tcNRWTve0NiwZrXUoPx5ChvF
xn/S8fDBRUlhXuD+pTb+Su7ACJSJQb0cO6yH0hLtrTaghcJcFUuWDRvdcXmN8vdY
YyoTfyBOHbWUukmRou/6bUXj2lVdGkB1fe0FuY7s2bL0MhY6DCaQ50N+lbaK4Dqd
SmhOPova9qrtaynnf1gX1E6FqL12Az/5ly30VUk9acMZs+g2KqekMnzEvR4dMST1
XaHhaFki6to3IceXl/HDpDy/fHI0PzxuJUaS/re5iGakNRuAilb5UiaislEyUYGh
DDO7fZLBr2UteNo8msqO/MtIRWajGsPG+kA4TNnQ0Fbjj7PxFUAhmQeyiyjAISdm
yW0nmhi0jQGNtXuwroVGFuER6UCWhfeKtiLeDAkKZhTKcdth
-----END CERTIFICATE-----
