Certificate:
    Data:
        Version: 3 (0x2)
        Serial Number: 4 (0x4)
    Signature Algorithm: sha1WithRSAEncryption
        Issuer: O=My Company, OU=My Unit, L=My Town, ST=My State, C=US, CN=Sample CA
        Validity
            Not Before: May 26 12:43:49 2016 GMT
            Not After : May 24 12:43:49 2026 GMT
        Subject: C=US, ST=My State, O=My Company, OU=quickstart-468983:server2, CN=localhost
        Subject Public Key Info:
            Public Key Algorithm: rsaEncryption
                Public-Key: (4096 bit)
                Modulus:
                    00:d6:97:ec:46:fb:ec:66:cc:72:aa:9b:63:ef:eb:
                    d5:ab:c9:98:ec:e3:0c:6c:fa:19:86:2e:b2:8b:f5:
                    29:51:af:c0:fc:2a:66:ec:df:15:b9:82:e5:59:1b:
                    ab:79:38:22:02:ec:03:ff:15:ea:45:c9:28:d6:66:
                    4f:de:33:ac:b7:5f:fe:93:8b:8d:1d:c6:bc:49:67:
                    27:b4:f2:05:aa:f8:9d:e0:1d:b8:dd:94:a3:08:cd:
                    ff:98:0a:54:d9:60:84:a9:75:9c:84:ec:c5:d6:be:
                    b9:4f:ef:f6:b2:6e:f4:e2:55:4b:b5:0b:fa:d8:ee:
                    48:07:18:f2:3c:c1:fe:18:e8:66:10:5e:15:f9:61:
                    0f:8a:d2:76:9b:60:17:40:3c:5b:03:7f:26:b0:22:
                    cf:ec:bc:c0:04:44:7c:cd:7a:41:37:e3:99:9f:94:
                    92:9e:b6:99:00:b6:67:3a:0c:12:38:7e:b3:34:5f:
                    ed:a7:d1:36:53:10:03:c4:0f:9f:1d:fd:bc:bc:d6:
                    ec:57:2a:36:f0:83:83:85:f6:6b:7b:54:5a:81:90:
                    38:4d:7f:71:f3:01:5f:77:a0:79:cd:20:5f:c6:d5:
                    45:3a:a7:ec:4b:2b:53:96:1e:29:66:f5:7e:63:ae:
                    cf:e3:39:92:79:7f:03:ae:4c:95:ed:95:d5:93:86:
                    8d:84:57:25:c6:44:d9:2c:6e:8e:95:28:b4:5f:7e:
                    76:55:17:86:85:29:3f:c1:f1:7f:53:16:e9:31:67:
                    f0:14:83:8a:8a:ea:af:1a:1c:7b:c8:66:b4:2f:5a:
                    ce:f9:21:3c:5e:a2:c8:ac:23:01:6a:8f:0d:2a:cc:
                    8d:08:b2:f6:7c:3b:ee:40:e2:98:aa:1c:20:79:7b:
                    c9:a3:cd:44:9d:13:8a:4a:66:0d:d9:3e:15:ba:23:
                    a7:a9:46:c2:e5:81:5d:13:2b:a5:4e:06:fa:80:c8:
                    57:14:43:a1:8b:69:2b:6e:29:bc:3c:f8:8a:f6:fb:
                    87:34:d5:a3:e3:9c:0d:09:86:79:e5:77:cf:fd:47:
                    2e:7f:1c:53:b8:7a:62:73:93:01:87:47:2a:80:01:
                    3a:c1:35:e0:a0:62:67:19:8a:bd:3d:fd:29:4b:e0:
                    47:7e:95:b4:a8:be:19:b2:d2:ff:a3:55:a5:ae:5e:
                    30:94:f7:b0:10:ad:52:4c:2b:80:8a:cf:fc:57:16:
                    7f:fe:1e:54:ae:ec:9b:2e:d6:63:e0:d5:9c:fb:f7:
                    f1:32:35:fc:c1:ef:e2:9e:e7:d6:e3:96:a0:58:12:
                    16:2d:69:56:97:28:41:5e:46:ff:32:71:2e:2f:9c:
                    d3:73:8f:38:a2:45:45:05:30:3a:e9:8a:e3:47:25:
                    6f:68:9d
                Exponent: 65537 (0x10001)
        X509v3 extensions:
            X509v3 Basic Constraints: 
                CA:FALSE
            X509v3 Subject Key Identifier: 
                A2:2B:F2:35:CF:33:85:DF:4F:DE:3C:20:06:4E:D8:86:EC:3A:88:C7
            X509v3 Extended Key Usage: 
                TLS Web Server Authentication, TLS Web Client Authentication
    Signature Algorithm: sha1WithRSAEncryption
         6d:47:fd:53:31:b8:fd:75:a6:34:ed:b2:3f:37:0d:2c:cb:c7:
         11:39:c4:2f:d2:ee:ac:ae:c1:b4:d9:f9:0e:6d:21:9a:96:da:
         07:26:60:3e:f7:f2:d9:35:80:ff:88:6e:d9:3a:4f:2f:10:d7:
         1c:be:61:20:07:1b:0d:7c:a9:7a:8f:52:b1:58:88:a6:7d:da:
         42:94:a9:0d:11:72:02:54:42:00:21:05:b4:4e:70:11:ad:14:
         8c:4d:10:4c:91:9f:71:29:14:46:ba:fc:b9:8d:15:50:61:25:
         c2:ec:c9:39:11:0d:94:ee:ee:81:50:9a:68:4c:b7:b4:7a:f2:
         6e:4f:d5:45:04:63:12:09:ae:c5:6f:d1:25:bc:51:a6:c7:35:
         d8:2b:7a:13:c0:29:10:37:86:8e:ac:ca:2b:68:93:7f:01:a8:
         34:06:da:f4:5a:d5:16:3d:4f:e9:38:07:3f:1f:15:48:55:a6:
         ac:14:21:82:93:38:b2:76:b5:25:80:bc:2a:41:cd:af:8f:40:
         32:be:e7:4b:bd:90:83:8e:7c:1f:54:34:e6:cc:e9:2d:01:de:
         33:97:c8:b6:8a:c6:b5:b0:1a:b8:77:c1:a0:da:cf:cf:42:4d:
         cc:9d:82:e1:31:b5:76:5f:76:7c:b5:db:5f:07:2c:df:b1:92:
         93:54:ad:ca:49:0e:21:e0:f9:13:7e:7e:75:1e:ae:49:ec:50:
         d3:e6:a8:66:5b:54:62:1c:a5:ba:a9:15:6b:0a:65:8b:71:ac:
         3e:66:3d:f7:26:b8:e4:a4:b6:3f:9f:5f:f7:85:16:15:85:67:
         bb:9b:07:e1:1f:a4:a3:3b:2e:cd:19:af:18:35:78:0e:3f:20:
         55:d0:fc:1e:2e:46:b4:e3:79:52:de:89:cd:44:7d:94:75:33:
         6d:2f:b5:83:1e:9d:65:f4:40:d3:fb:fa:16:01:79:0c:a7:99:
         54:b7:80:ec:87:7d:d3:53:06:98:a6:63:52:2f:a0:0a:0c:41:
         fb:db:22:0e:b5:f1:f6:80:d6:d6:c9:b4:a2:0b:03:a6:f3:de:
         d7:9f:e0:b5:e7:20:9e:48:93:f7:b2:d3:4c:03:3e:8d:2f:28:
         e9:07:05:fc:9d:d4:f1:01:0f:0d:9e:4f:dc:8b:e1:af:04:7d:
         b5:88:57:29:9e:c9:d3:bd:5f:da:43:f7:53:8c:76:f2:e7:bd:
         e9:e2:07:59:3c:f2:37:dd:84:27:b5:5d:be:b0:63:7e:34:99:
         5c:4f:78:c6:5c:dc:33:f8:b1:6e:20:fd:be:48:23:73:a6:60:
         fc:10:12:e2:c6:59:0d:b9:c9:51:f1:2f:7f:76:b2:6e:9c:25:
         b4:26:8a:49:61:27:0b:cd
-----BEGIN CERTIFICATE-----
MIIFoDCCA4igAwIBAgIBBDANBgkqhkiG9w0BAQUFADBtMRMwEQYDVQQKEwpNeSBD
b21wYW55MRAwDgYDVQQLEwdNeSBVbml0MRAwDgYDVQQHEwdNeSBUb3duMREwDwYD
VQQIEwhNeSBTdGF0ZTELMAkGA1UEBhMCVVMxEjAQBgNVBAMTCVNhbXBsZSBDQTAe
Fw0xNjA1MjYxMjQzNDlaFw0yNjA1MjQxMjQzNDlaMG0xCzAJBgNVBAYTAlVTMREw
DwYDVQQIEwhNeSBTdGF0ZTETMBEGA1UEChMKTXkgQ29tcGFueTEiMCAGA1UECxMZ
cXVpY2tzdGFydC00Njg5ODM6c2VydmVyMjESMBAGA1UEAxMJbG9jYWxob3N0MIIC
IjANBgkqhkiG9w0BAQEFAAOCAg8AMIICCgKCAgEA1pfsRvvsZsxyqptj7+vVq8mY
7OMMbPoZhi6yi/UpUa/A/Cpm7N8VuYLlWRureTgiAuwD/xXqRcko1mZP3jOst1/+
k4uNHca8SWcntPIFqvid4B243ZSjCM3/mApU2WCEqXWchOzF1r65T+/2sm704lVL
tQv62O5IBxjyPMH+GOhmEF4V+WEPitJ2m2AXQDxbA38msCLP7LzABER8zXpBN+OZ
n5SSnraZALZnOgwSOH6zNF/tp9E2UxADxA+fHf28vNbsVyo28IODhfZre1RagZA4
TX9x8wFfd6B5zSBfxtVFOqfsSytTlh4pZvV+Y67P4zmSeX8DrkyV7ZXVk4aNhFcl
xkTZLG6OlSi0X352VReGhSk/wfF/UxbpMWfwFIOKiuqvGhx7yGa0L1rO+SE8XqLI
rCMBao8NKsyNCLL2fDvuQOKYqhwgeXvJo81EnROKSmYN2T4VuiOnqUbC5YFdEyul
Tgb6gMhXFEOhi2krbim8PPiK9vuHNNWj45wNCYZ55XfP/UcufxxTuHpic5MBh0cq
gAE6wTXgoGJnGYq9Pf0pS+BHfpW0qL4ZstL/o1Wlrl4wlPewEK1STCuAis/8VxZ/
/h5UruybLtZj4NWc+/fxMjX8we/inufW45agWBIWLWlWlyhBXkb/MnEuL5zTc484
okVFBTA66YrjRyVvaJ0CAwEAAaNLMEkwCQYDVR0TBAIwADAdBgNVHQ4EFgQUoivy
Nc8zhd9P3jwgBk7Yhuw6iMcwHQYDVR0lBBYwFAYIKwYBBQUHAwEGCCsGAQUFBwMC
MA0GCSqGSIb3DQEBBQUAA4ICAQBtR/1TMbj9daY07bI/Nw0sy8cROcQv0u6srsG0
2fkObSGaltoHJmA+9/LZNYD/iG7ZOk8vENccvmEgBxsNfKl6j1KxWIimfdpClKkN
EXICVEIAIQW0TnARrRSMTRBMkZ9xKRRGuvy5jRVQYSXC7Mk5EQ2U7u6BUJpoTLe0
evJuT9VFBGMSCa7Fb9ElvFGmxzXYK3oTwCkQN4aOrMoraJN/Aag0Btr0WtUWPU/p
OAc/HxVIVaasFCGCkziydrUlgLwqQc2vj0AyvudLvZCDjnwfVDTmzOktAd4zl8i2
isa1sBq4d8Gg2s/PQk3MnYLhMbV2X3Z8tdtfByzfsZKTVK3KSQ4h4PkTfn51Hq5J
7FDT5qhmW1RiHKW6qRVrCmWLcaw+Zj33JrjkpLY/n1/3hRYVhWe7mwfhH6SjOy7N
Ga8YNXgOPyBV0PweLka043lS3onNRH2UdTNtL7WDHp1l9EDT+/oWAXkMp5lUt4Ds
h33TUwaYpmNSL6AKDEH72yIOtfH2gNbWybSiCwOm897Xn+C15yCeSJP3stNMAz6N
LyjpBwX8ndTxAQ8Nnk/ci+GvBH21iFcpnsnTvV/aQ/dTjHby573p4gdZPPI33YQn
tV2+sGN+NJlcT3jGXNwz+LFuIP2+SCNzpmD8EBLixlkNuclR8S9/drJunCW0JopJ
YScLzQ==
-----END CERTIFICATE-----
