Certificate:
    Data:
        Version: 3 (0x2)
        Serial Number: 2 (0x2)
    Signature Algorithm: sha1WithRSAEncryption
        Issuer: O=My Company, OU=My Unit, L=My Town, ST=My State, C=US, CN=Sample CA
        Validity
            Not Before: May 26 12:43:47 2016 GMT
            Not After : May 24 12:43:47 2026 GMT
        Subject: C=US, ST=My State, O=My Company, OU=web-admin, CN=localhost
        Subject Public Key Info:
            Public Key Algorithm: rsaEncryption
                Public-Key: (4096 bit)
                Modulus:
                    00:b1:07:59:83:d7:28:80:9b:17:80:82:cc:80:84:
                    60:a3:7c:63:e4:16:67:22:47:69:99:3b:06:13:3c:
                    04:79:76:5f:47:bc:22:e6:ef:ec:05:90:41:c8:25:
                    c3:2c:2a:b4:2a:b2:78:4b:40:a7:ea:d4:3b:56:62:
                    f8:dd:f7:59:ae:3a:d4:8d:89:f9:36:b3:63:98:21:
                    9b:c2:fd:40:59:bb:22:74:53:24:e9:bd:8b:10:14:
                    48:de:64:23:3d:33:1d:fa:1c:9f:89:b0:95:0f:40:
                    5b:95:15:84:93:f1:82:51:3e:a9:7f:2a:31:5f:e8:
                    8c:ef:85:2a:0c:c1:d2:2b:c9:35:a6:01:8d:e3:5c:
                    eb:2b:71:56:08:05:d7:d3:17:31:74:b3:e9:f8:02:
                    d5:f7:24:ee:f7:37:73:5b:b8:5b:7b:91:c0:a2:c9:
                    da:87:bd:53:5e:a2:9e:d1:5e:7d:32:1a:63:36:fe:
                    1a:d4:c1:5d:6f:5f:e3:87:59:8a:73:8d:1a:8f:c3:
                    4e:80:c6:a2:e6:a5:69:8e:ae:4b:f5:6f:77:a5:c7:
                    c0:4c:0a:ba:44:b7:9f:c8:f6:e6:07:10:12:a5:ac:
                    91:f1:0d:f0:b6:8b:31:c1:61:7b:4f:eb:78:02:91:
                    f5:10:6f:4c:03:51:46:28:96:2a:f4:27:d9:24:6a:
                    a8:ef:64:bb:90:ba:19:16:af:73:d8:12:ed:54:1c:
                    b2:dc:33:f1:0f:22:a2:c0:b3:f3:cc:cf:7c:06:f4:
                    17:ae:ad:0f:83:04:dd:8a:2a:05:19:69:bb:bb:7e:
                    9c:95:89:1a:c7:81:09:0c:f8:72:eb:32:2c:a7:65:
                    cf:29:e9:69:15:1b:92:98:13:28:cc:30:38:70:af:
                    f4:35:d7:1e:40:0f:2d:62:de:69:5e:58:6d:7b:71:
                    d6:ad:cb:f9:85:3f:9b:c8:10:ea:58:c2:05:48:ce:
                    02:12:59:b1:3b:e8:99:7e:2e:a7:de:a2:da:39:43:
                    7c:78:eb:30:48:64:71:20:17:15:a7:b9:ea:28:fa:
                    81:ae:9e:c4:c8:b5:75:21:db:b2:23:b8:bc:07:cf:
                    63:07:5b:13:75:13:4c:8b:37:f1:90:e2:b5:d1:39:
                    de:3a:8e:64:f8:22:ce:1d:ad:db:9c:75:f0:22:ff:
                    48:97:15:47:bd:63:fe:eb:8b:47:cb:62:0d:78:24:
                    37:fd:81:b0:40:65:46:ce:51:8a:28:c8:d4:ee:b4:
                    48:a4:6f:32:d8:2f:fa:a9:e3:3d:6f:86:bf:60:1a:
                    04:45:5b:e9:7c:76:7c:99:01:ca:df:18:d3:6f:7f:
                    62:2e:f6:46:27:88:02:a0:36:1f:d9:ba:f4:1e:d0:
                    c5:d2:47
                Exponent: 65537 (0x10001)
        X509v3 extensions:
            X509v3 Basic Constraints: 
                CA:FALSE
            X509v3 Subject Key Identifier: 
                02:7C:D6:49:E3:19:CE:D4:AA:73:04:43:0B:50:08:DF:7D:12:8D:7E
            X509v3 Extended Key Usage: 
                TLS Web Server Authentication, TLS Web Client Authentication
    Signature Algorithm: sha1WithRSAEncryption
         4c:39:8b:5c:65:22:e4:4f:8f:8e:1e:a6:3b:0c:15:8f:9e:9c:
         58:b4:b1:6b:41:e8:36:5b:08:b3:7c:d9:bf:1d:c7:5f:70:43:
         54:c5:a1:18:c6:e2:9a:3a:23:0f:d0:1a:46:ca:3b:68:f3:b3:
         99:d0:1a:ee:cd:c4:32:75:a8:55:4b:67:ab:41:17:f8:fb:87:
         a7:82:ac:8a:e8:25:f5:76:1e:89:22:74:40:31:19:18:61:14:
         c4:01:85:fc:de:9b:14:d7:66:11:51:73:93:39:59:be:b2:93:
         90:b9:d5:86:47:de:82:3a:69:df:f2:70:e2:e8:ae:79:40:bc:
         91:5e:90:8c:d8:71:d3:c8:d2:8b:be:f8:49:6d:71:33:d5:68:
         a1:22:42:c4:96:15:18:9a:4c:7b:d0:e2:5f:af:bc:f3:31:d0:
         6a:90:6b:4e:0a:8a:39:69:aa:1c:e9:61:75:ec:f0:c8:bf:b6:
         4b:7b:c7:a5:d4:ac:49:c6:99:ec:41:85:86:ef:3c:f5:4f:1b:
         dc:4f:2c:23:14:d4:4c:d0:2b:9c:d3:33:77:3b:1a:3e:60:e0:
         43:46:50:2c:74:ad:c5:bc:3c:d3:f7:5c:e7:7a:da:d5:58:8e:
         a7:c7:d1:58:99:e9:6a:c0:e3:32:4f:4e:3f:1a:e9:d8:9e:d6:
         ee:ad:77:14:c8:29:15:75:96:a6:d5:09:4b:28:92:d0:06:15:
         07:48:98:e7:d9:71:7d:d2:e8:31:bb:c0:a4:e0:1d:58:08:c5:
         21:4a:e5:72:1f:e8:fe:c3:fd:45:a4:73:98:8c:22:ec:b4:c3:
         3a:5c:5f:0d:93:3a:5b:f0:9d:b9:a5:85:57:88:e1:3f:52:d8:
         78:d6:79:f3:64:c8:84:42:6a:ec:76:bf:08:90:3d:92:ee:28:
         95:be:ea:40:32:a0:57:2b:11:49:3f:b8:50:ea:72:ec:b6:d4:
         71:59:5e:fd:15:79:99:a6:bd:40:63:c4:27:f9:93:4c:9f:95:
         02:a6:65:c6:f0:40:95:3b:ea:9e:0c:94:9d:a6:47:3e:88:9f:
         fc:d3:b8:84:95:e2:19:ae:1c:80:f0:7c:9c:63:d5:0e:49:e0:
         96:e5:9a:da:20:47:f3:ff:7d:48:6a:ed:a8:b1:1f:93:31:c3:
         58:c4:8f:8f:15:e6:16:fa:7e:bb:9f:b9:d0:f0:99:d3:3d:34:
         a8:9e:b8:e1:5f:21:f0:15:d2:d1:d1:a8:52:4e:dd:b7:c6:30:
         f8:b2:5d:73:f6:70:4f:85:5e:a8:d9:27:07:b7:09:6e:80:41:
         6f:69:18:ef:13:f8:9a:6b:dc:9a:63:b6:35:c9:7a:18:af:a0:
         ff:2f:a0:97:1c:9a:7e:68
-----BEGIN CERTIFICATE-----
MIIFkDCCA3igAwIBAgIBAjANBgkqhkiG9w0BAQUFADBtMRMwEQYDVQQKEwpNeSBD
b21wYW55MRAwDgYDVQQLEwdNeSBVbml0MRAwDgYDVQQHEwdNeSBUb3duMREwDwYD
VQQIEwhNeSBTdGF0ZTELMAkGA1UEBhMCVVMxEjAQBgNVBAMTCVNhbXBsZSBDQTAe
Fw0xNjA1MjYxMjQzNDdaFw0yNjA1MjQxMjQzNDdaMF0xCzAJBgNVBAYTAlVTMREw
DwYDVQQIEwhNeSBTdGF0ZTETMBEGA1UEChMKTXkgQ29tcGFueTESMBAGA1UECxMJ
d2ViLWFkbWluMRIwEAYDVQQDEwlsb2NhbGhvc3QwggIiMA0GCSqGSIb3DQEBAQUA
A4ICDwAwggIKAoICAQCxB1mD1yiAmxeAgsyAhGCjfGPkFmciR2mZOwYTPAR5dl9H
vCLm7+wFkEHIJcMsKrQqsnhLQKfq1DtWYvjd91muOtSNifk2s2OYIZvC/UBZuyJ0
UyTpvYsQFEjeZCM9Mx36HJ+JsJUPQFuVFYST8YJRPql/KjFf6IzvhSoMwdIryTWm
AY3jXOsrcVYIBdfTFzF0s+n4AtX3JO73N3NbuFt7kcCiydqHvVNeop7RXn0yGmM2
/hrUwV1vX+OHWYpzjRqPw06AxqLmpWmOrkv1b3elx8BMCrpEt5/I9uYHEBKlrJHx
DfC2izHBYXtP63gCkfUQb0wDUUYolir0J9kkaqjvZLuQuhkWr3PYEu1UHLLcM/EP
IqLAs/PMz3wG9BeurQ+DBN2KKgUZabu7fpyViRrHgQkM+HLrMiynZc8p6WkVG5KY
EyjMMDhwr/Q11x5ADy1i3mleWG17cdaty/mFP5vIEOpYwgVIzgISWbE76Jl+Lqfe
oto5Q3x46zBIZHEgFxWnueoo+oGunsTItXUh27IjuLwHz2MHWxN1E0yLN/GQ4rXR
Od46jmT4Is4drducdfAi/0iXFUe9Y/7ri0fLYg14JDf9gbBAZUbOUYooyNTutEik
bzLYL/qp4z1vhr9gGgRFW+l8dnyZAcrfGNNvf2Iu9kYniAKgNh/ZuvQe0MXSRwID
AQABo0swSTAJBgNVHRMEAjAAMB0GA1UdDgQWBBQCfNZJ4xnO1KpzBEMLUAjffRKN
fjAdBgNVHSUEFjAUBggrBgEFBQcDAQYIKwYBBQUHAwIwDQYJKoZIhvcNAQEFBQAD
ggIBAEw5i1xlIuRPj44epjsMFY+enFi0sWtB6DZbCLN82b8dx19wQ1TFoRjG4po6
Iw/QGkbKO2jzs5nQGu7NxDJ1qFVLZ6tBF/j7h6eCrIroJfV2HokidEAxGRhhFMQB
hfzemxTXZhFRc5M5Wb6yk5C51YZH3oI6ad/ycOLornlAvJFekIzYcdPI0ou++Elt
cTPVaKEiQsSWFRiaTHvQ4l+vvPMx0GqQa04KijlpqhzpYXXs8Mi/tkt7x6XUrEnG
mexBhYbvPPVPG9xPLCMU1EzQK5zTM3c7Gj5g4ENGUCx0rcW8PNP3XOd62tVYjqfH
0ViZ6WrA4zJPTj8a6die1u6tdxTIKRV1lqbVCUsoktAGFQdImOfZcX3S6DG7wKTg
HVgIxSFK5XIf6P7D/UWkc5iMIuy0wzpcXw2TOlvwnbmlhVeI4T9S2HjWefNkyIRC
aux2vwiQPZLuKJW+6kAyoFcrEUk/uFDqcuy21HFZXv0VeZmmvUBjxCf5k0yflQKm
ZcbwQJU76p4MlJ2mRz6In/zTuISV4hmuHIDwfJxj1Q5J4JblmtogR/P/fUhq7aix
H5Mxw1jEj48V5hb6frufudDwmdM9NKieuOFfIfAV0tHRqFJO3bfGMPiyXXP2cE+F
XqjZJwe3CW6AQW9pGO8T+Jpr3JpjtjXJehivoP8voJccmn5o
-----END CERTIFICATE-----
