Certificate:
    Data:
        Version: 3 (0x2)
        Serial Number: 3 (0x3)
    Signature Algorithm: sha1WithRSAEncryption
        Issuer: O=My Company, OU=My Unit, L=My Town, ST=My State, C=US, CN=Sample CA
        Validity
            Not Before: May 26 12:43:48 2016 GMT
            Not After : May 24 12:43:48 2026 GMT
        Subject: C=US, ST=My State, O=My Company, OU=quickstart-468983:server1, CN=localhost
        Subject Public Key Info:
            Public Key Algorithm: rsaEncryption
                Public-Key: (4096 bit)
                Modulus:
                    00:a7:1e:33:a3:60:14:39:48:19:d4:2e:8f:ee:01:
                    bf:d2:3f:1f:1f:a5:9a:48:42:03:48:0f:ba:49:5f:
                    dc:77:d5:7c:ef:29:63:6b:56:5e:52:49:46:73:27:
                    10:1f:c3:15:1b:16:d5:5d:c0:99:8c:5d:33:57:ea:
                    88:72:c9:26:a5:70:4f:c2:be:f6:26:7b:1d:6c:0f:
                    72:34:e4:7f:0f:78:38:b0:28:1c:54:40:74:78:0b:
                    91:2f:82:75:02:62:f2:04:2b:9b:7e:ca:03:1a:65:
                    3d:34:b7:ae:83:e9:8d:f6:2e:4e:bf:8e:77:71:29:
                    ec:ec:94:a4:1d:74:90:9f:cd:1c:28:44:1b:b3:0d:
                    95:68:17:3d:7d:83:fb:cd:a9:6d:42:bc:9e:dd:76:
                    0e:d6:ea:3f:21:98:e9:2e:c5:ca:62:30:66:fb:15:
                    2a:ab:8e:03:b1:62:5c:89:c1:24:2a:35:19:e4:37:
                    f2:13:d7:4e:89:fd:e4:d8:a4:1f:2f:c1:1f:42:86:
                    5b:0a:5d:be:61:0f:54:e3:d6:32:95:75:11:d6:5f:
                    2c:a9:ee:9f:4a:b3:0a:96:79:67:59:3a:63:f3:c5:
                    c5:8d:b0:bc:88:9b:a5:2d:89:45:e7:24:3b:6d:91:
                    c2:7b:b5:3a:17:ee:b9:13:66:ce:fd:72:29:c4:fa:
                    1c:e2:99:a8:b4:d7:c7:9f:81:cb:2d:20:27:65:50:
                    9b:79:d5:31:71:32:51:c7:0e:26:09:00:dc:2a:43:
                    92:32:6d:38:b6:ba:15:56:42:5a:31:49:36:80:c9:
                    8c:ff:0c:f5:5a:46:a0:fa:64:be:89:49:e4:bb:a6:
                    52:20:d5:ae:85:c3:52:98:34:86:72:fc:1e:4d:a8:
                    94:bd:c6:7b:ed:54:63:08:aa:a2:e8:2c:05:28:54:
                    c2:3b:a1:8b:52:2d:f2:25:1d:cf:80:19:d9:58:d4:
                    56:6d:12:06:6c:90:78:2a:79:ad:01:b5:d5:16:5d:
                    5e:1e:c7:5e:e6:4b:b2:61:1f:7e:31:16:4f:01:24:
                    c1:a3:3a:68:d8:d7:b7:38:25:87:6a:af:b3:9e:ac:
                    72:5d:3e:b3:22:c4:28:a1:78:b5:56:59:97:7c:04:
                    11:cc:e8:76:96:83:65:c3:13:47:c0:97:22:dd:e3:
                    1e:9f:b1:dd:5f:72:f8:58:3b:a6:c5:4a:81:11:11:
                    c0:4d:52:c2:07:02:c1:a7:2e:6a:16:50:69:78:a9:
                    08:1b:42:83:35:c8:29:7f:59:fc:9e:4e:5d:5f:28:
                    24:0e:b0:10:da:0c:1d:a9:9a:ae:51:9d:cc:5d:ce:
                    bd:ef:5c:ac:51:dc:fc:d4:94:e0:de:a2:14:5e:b6:
                    bc:c5:05
                Exponent: 65537 (0x10001)
        X509v3 extensions:
            X509v3 Basic Constraints: 
                CA:FALSE
            X509v3 Subject Key Identifier: 
                05:B1:1F:47:F4:AE:F1:D3:86:AD:5E:04:37:31:13:58:86:8D:37:0A
            X509v3 Extended Key Usage: 
                TLS Web Server Authentication, TLS Web Client Authentication
    Signature Algorithm: sha1WithRSAEncryption
         9f:82:9d:a1:73:df:64:5a:cf:c6:10:ef:d3:a3:e9:63:8c:3e:
         c2:39:1a:19:44:08:da:51:83:6c:fb:0d:10:05:f1:7f:52:9f:
         eb:bd:9a:ee:76:11:6e:bf:ff:1f:15:13:07:09:5e:69:b9:5b:
         27:e9:6e:0e:f4:47:94:c4:6f:5b:cc:d0:4e:e4:cf:62:21:71:
         e2:83:58:ce:2b:c8:1b:02:00:b5:0e:3a:bc:e0:b9:02:25:ed:
         d5:b9:a4:b4:17:55:e5:e6:d4:71:22:95:94:05:2d:30:b6:69:
         c1:73:c6:4b:46:7b:bb:3a:92:43:86:79:ae:12:95:ef:46:b5:
         0c:ee:b0:c4:87:9e:6c:a3:d3:40:a3:2e:57:73:8b:1b:ac:6b:
         26:be:eb:7d:15:58:07:c0:24:78:ec:b6:49:25:dc:4c:36:fd:
         52:59:21:96:a1:12:66:7e:2e:d6:2e:8a:b6:27:3e:8c:db:4f:
         5e:c1:48:10:5d:ad:7b:3e:89:4e:c8:12:6e:46:d4:6d:96:50:
         82:12:13:d9:33:f5:d5:62:c7:41:b4:c2:61:8b:7c:a7:ba:20:
         d2:8b:a3:67:3e:6e:f7:ae:a9:dc:3e:4f:51:a3:e5:b4:13:54:
         5a:32:a6:ca:66:90:b7:e4:d8:64:fc:ae:8b:9c:98:19:07:55:
         6f:00:68:c1:63:d5:de:ed:dc:32:8b:43:03:bb:b4:4c:b2:ee:
         0f:a1:3d:5d:ca:80:05:f3:64:c0:3a:ba:10:d2:af:0a:0c:ef:
         e7:c9:89:de:57:51:cc:4c:37:db:42:15:4f:de:77:92:ae:84:
         2a:52:f9:b8:7f:2e:ce:77:09:d5:69:22:4b:49:72:18:26:73:
         8e:2f:9e:3d:c4:9f:22:90:2b:cd:a0:08:17:6a:b4:fa:52:dd:
         55:b2:ed:4a:d1:d9:0c:96:e2:04:b2:80:61:ac:57:9f:ef:58:
         61:f4:71:b5:ba:29:a8:39:ab:58:62:ad:de:b8:f6:ae:82:2f:
         89:b9:e5:db:07:9b:c6:0f:5f:66:1c:0b:13:4f:f6:a4:1c:9e:
         91:c5:e2:6d:1e:14:1f:04:79:b6:90:42:11:d5:9e:92:5e:be:
         91:ba:a3:53:83:f2:ce:e7:ac:d2:55:40:9e:d3:e6:b6:45:8d:
         23:04:72:c8:7f:bb:d1:b2:10:b3:0d:a1:79:34:b2:83:ca:f1:
         f2:35:4b:29:0b:c9:c5:02:83:2b:21:e3:ee:4b:38:b6:a6:c7:
         ed:f6:6b:fc:f1:4b:78:d3:10:7e:57:13:88:77:c6:70:8e:32:
         4f:92:b9:0a:0f:05:52:1c:c1:37:bc:41:bd:0b:70:e4:06:f3:
         f5:fb:12:25:7d:99:7e:cc
-----BEGIN CERTIFICATE-----
MIIFoDCCA4igAwIBAgIBAzANBgkqhkiG9w0BAQUFADBtMRMwEQYDVQQKEwpNeSBD
b21wYW55MRAwDgYDVQQLEwdNeSBVbml0MRAwDgYDVQQHEwdNeSBUb3duMREwDwYD
VQQIEwhNeSBTdGF0ZTELMAkGA1UEBhMCVVMxEjAQBgNVBAMTCVNhbXBsZSBDQTAe
Fw0xNjA1MjYxMjQzNDhaFw0yNjA1MjQxMjQzNDhaMG0xCzAJBgNVBAYTAlVTMREw
DwYDVQQIEwhNeSBTdGF0ZTETMBEGA1UEChMKTXkgQ29tcGFueTEiMCAGA1UECxMZ
cXVpY2tzdGFydC00Njg5ODM6c2VydmVyMTESMBAGA1UEAxMJbG9jYWxob3N0MIIC
IjANBgkqhkiG9w0BAQEFAAOCAg8AMIICCgKCAgEApx4zo2AUOUgZ1C6P7gG/0j8f
H6WaSEIDSA+6SV/cd9V87ylja1ZeUklGcycQH8MVGxbVXcCZjF0zV+qIcskmpXBP
wr72JnsdbA9yNOR/D3g4sCgcVEB0eAuRL4J1AmLyBCubfsoDGmU9NLeug+mN9i5O
v453cSns7JSkHXSQn80cKEQbsw2VaBc9fYP7zaltQrye3XYO1uo/IZjpLsXKYjBm
+xUqq44DsWJcicEkKjUZ5DfyE9dOif3k2KQfL8EfQoZbCl2+YQ9U49YylXUR1l8s
qe6fSrMKlnlnWTpj88XFjbC8iJulLYlF5yQ7bZHCe7U6F+65E2bO/XIpxPoc4pmo
tNfHn4HLLSAnZVCbedUxcTJRxw4mCQDcKkOSMm04troVVkJaMUk2gMmM/wz1Wkag
+mS+iUnku6ZSINWuhcNSmDSGcvweTaiUvcZ77VRjCKqi6CwFKFTCO6GLUi3yJR3P
gBnZWNRWbRIGbJB4KnmtAbXVFl1eHsde5kuyYR9+MRZPASTBozpo2Ne3OCWHaq+z
nqxyXT6zIsQooXi1VlmXfAQRzOh2loNlwxNHwJci3eMen7HdX3L4WDumxUqBERHA
TVLCBwLBpy5qFlBpeKkIG0KDNcgpf1n8nk5dXygkDrAQ2gwdqZquUZ3MXc6971ys
Udz81JTg3qIUXra8xQUCAwEAAaNLMEkwCQYDVR0TBAIwADAdBgNVHQ4EFgQUBbEf
R/Su8dOGrV4ENzETWIaNNwowHQYDVR0lBBYwFAYIKwYBBQUHAwEGCCsGAQUFBwMC
MA0GCSqGSIb3DQEBBQUAA4ICAQCfgp2hc99kWs/GEO/To+ljjD7CORoZRAjaUYNs
+w0QBfF/Up/rvZrudhFuv/8fFRMHCV5puVsn6W4O9EeUxG9bzNBO5M9iIXHig1jO
K8gbAgC1Djq84LkCJe3VuaS0F1Xl5tRxIpWUBS0wtmnBc8ZLRnu7OpJDhnmuEpXv
RrUM7rDEh55so9NAoy5Xc4sbrGsmvut9FVgHwCR47LZJJdxMNv1SWSGWoRJmfi7W
Loq2Jz6M209ewUgQXa17PolOyBJuRtRtllCCEhPZM/XVYsdBtMJhi3ynuiDSi6Nn
Pm73rqncPk9Ro+W0E1RaMqbKZpC35Nhk/K6LnJgZB1VvAGjBY9Xe7dwyi0MDu7RM
su4PoT1dyoAF82TAOroQ0q8KDO/nyYneV1HMTDfbQhVP3neSroQqUvm4fy7OdwnV
aSJLSXIYJnOOL549xJ8ikCvNoAgXarT6Ut1Vsu1K0dkMluIEsoBhrFef71hh9HG1
uimoOatYYq3euPaugi+JueXbB5vGD19mHAsTT/akHJ6RxeJtHhQfBHm2kEIR1Z6S
Xr6RuqNTg/LO56zSVUCe0+a2RY0jBHLIf7vRshCzDaF5NLKDyvHyNUspC8nFAoMr
IePuSzi2psft9mv88Ut40xB+VxOId8ZwjjJPkrkKDwVSHME3vEG9C3DkBvP1+xIl
fZl+zA==
-----END CERTIFICATE-----
