Certificate:
    Data:
        Version: 3 (0x2)
        Serial Number: 1 (0x1)
    Signature Algorithm: sha1WithRSAEncryption
        Issuer: O=My Company, OU=My Unit, L=My Town, ST=My State, C=US, CN=Sample CA
        Validity
            Not Before: May 26 12:43:46 2016 GMT
            Not After : May 24 12:43:46 2026 GMT
        Subject: C=US, ST=My State, O=My Company, OU=zato-lb-agent, CN=localhost
        Subject Public Key Info:
            Public Key Algorithm: rsaEncryption
                Public-Key: (4096 bit)
                Modulus:
                    00:ba:d8:f8:ee:99:a0:a0:e3:82:e7:c1:b4:6b:f7:
                    7b:98:76:02:cf:4c:45:03:43:99:6e:19:fc:db:c5:
                    99:44:12:af:7d:9d:a0:b5:c1:70:b3:61:4d:69:e0:
                    d3:87:33:58:58:40:2d:b8:f6:c3:f4:7a:62:18:ab:
                    23:da:8e:f1:5d:97:0f:9f:71:0e:31:de:78:06:8a:
                    dd:bd:48:3b:69:44:fd:f4:93:ee:ef:41:7e:b3:a6:
                    36:d2:dc:11:63:f8:d3:0d:a1:87:93:46:83:1a:ff:
                    a3:6c:4e:f1:69:97:f7:e4:33:09:00:b7:5a:e7:66:
                    be:27:c8:76:00:5d:1e:b0:99:dc:74:9e:3c:29:a2:
                    65:37:45:40:13:3f:0e:3b:8e:cb:f7:8a:b3:f7:03:
                    99:f4:04:f9:fd:3a:a3:f6:dc:01:bd:ee:68:19:85:
                    e1:cb:04:bd:b0:ae:cd:74:53:23:e6:b2:65:4a:10:
                    ca:ea:c9:f0:35:0b:35:8c:09:63:d9:34:f9:69:32:
                    96:b6:81:ef:15:e2:53:57:00:1d:a5:0d:88:40:eb:
                    c7:1c:55:d2:5a:16:d8:3c:b1:86:57:5a:bf:21:93:
                    0e:aa:c2:ab:f0:4a:9b:8c:ea:6d:04:e1:64:fc:15:
                    8f:2b:dc:f0:c1:0e:fb:73:62:0f:21:8d:c4:a6:c9:
                    10:e1:80:c8:76:0b:9e:71:3f:ad:6c:c2:a8:41:ba:
                    d9:1f:1b:6c:bc:9c:70:ab:8b:09:cc:31:28:ad:e6:
                    60:a3:84:85:3a:74:be:f3:e8:72:e0:79:b4:8a:7a:
                    d2:e8:2e:d0:e4:fe:fb:a2:1d:19:06:3a:61:db:db:
                    8d:d9:8d:b7:52:3a:1d:cd:1d:a9:3e:fc:bb:98:4a:
                    2f:68:ff:2f:60:57:d0:58:45:bb:6b:bc:c2:61:c9:
                    b8:e5:7a:e5:3d:6c:39:06:1c:d5:69:46:cc:16:13:
                    cb:8e:79:29:f8:44:92:63:26:3f:a6:33:96:68:30:
                    0f:12:ad:60:e2:3f:cf:ed:13:80:bf:ca:dc:31:a1:
                    f1:c0:c1:83:24:cf:bc:db:a9:25:a3:cd:b3:3f:31:
                    87:a3:67:74:f9:60:f6:7b:70:fe:38:ed:79:03:12:
                    a7:be:21:f3:bb:02:23:82:ed:17:b5:f1:56:bf:9b:
                    d4:ec:35:37:7f:67:a0:14:be:fc:25:5e:5b:b6:ed:
                    65:ff:88:c7:6d:78:17:a2:7c:ae:bf:49:12:e7:8c:
                    7e:78:39:b4:82:99:46:26:bd:84:17:f2:63:14:77:
                    55:68:6d:7f:84:6c:29:1a:3d:c2:1e:11:04:ba:d8:
                    3b:3e:7a:7b:13:16:1a:5c:fa:6d:43:a1:89:f2:85:
                    b1:b9:43
                Exponent: 65537 (0x10001)
        X509v3 extensions:
            X509v3 Basic Constraints: 
                CA:FALSE
            X509v3 Subject Key Identifier: 
                B9:AA:E4:50:B0:BC:57:8F:9D:9F:26:F3:1B:ED:E0:03:09:93:67:77
            X509v3 Extended Key Usage: 
                TLS Web Server Authentication
    Signature Algorithm: sha1WithRSAEncryption
         23:3c:64:fb:0a:a7:15:d8:1b:7f:e4:3e:27:ce:e0:68:29:8f:
         29:ee:ce:8d:2a:b7:c6:8d:43:80:91:a2:dd:43:f7:5f:d9:51:
         42:d5:ca:50:4d:9b:a2:53:30:e2:9b:34:ad:5e:40:c6:4d:69:
         2d:1f:4c:4e:6f:dd:9b:89:2f:7a:5c:9b:85:91:61:64:c7:e1:
         fc:2f:90:a9:5e:cb:d7:b8:69:ff:8d:09:a1:09:57:48:5e:6e:
         87:64:02:3f:2e:98:07:53:71:a1:1d:a2:88:9d:c9:d6:fb:05:
         b9:d6:50:6a:e2:91:f6:48:e2:cf:a2:47:c0:48:6e:94:06:ca:
         b7:24:d2:67:39:b8:9a:3b:15:82:56:8f:0b:92:c6:61:46:4d:
         83:f9:30:69:2b:36:77:fe:aa:54:9c:b8:6a:b0:54:9e:9f:73:
         88:b3:dd:68:42:68:f6:8c:71:74:e7:ec:39:1d:72:68:05:f2:
         d1:28:a6:d9:dd:3e:65:67:f8:8e:06:9d:29:ab:f7:e8:d8:85:
         f1:16:05:94:35:1d:e0:66:b6:25:f4:1a:9e:09:a1:3e:6a:c3:
         66:a7:53:8f:f4:e2:a5:52:b1:5b:8c:97:98:43:b3:d3:90:4c:
         7e:22:85:d7:5d:77:af:be:8e:9f:22:7d:07:45:86:17:5f:0d:
         ae:f5:15:47:4c:83:68:5c:e9:4e:ce:28:f9:a6:5d:ea:39:39:
         64:31:1f:f7:2f:af:f2:e0:54:24:cf:3e:95:d6:14:65:6a:2c:
         0f:19:c9:da:8d:0e:24:e8:5c:43:76:45:f9:95:d8:cd:71:ab:
         90:18:a6:91:56:ed:bb:30:d1:9a:11:b8:3a:54:02:80:07:4e:
         fd:9b:cc:40:ee:22:a3:a3:da:f1:f9:c8:98:ea:0e:8d:03:b6:
         bc:39:8d:7f:e5:6c:75:e9:1d:31:ad:4e:b6:27:04:af:76:a3:
         cb:f4:6b:39:cd:5c:86:05:06:c0:6f:51:32:d2:9c:fb:d7:e4:
         9e:19:67:3c:19:02:b9:81:f5:76:4f:f9:ab:db:4b:71:27:95:
         5e:d7:c7:8a:42:dc:5d:3f:2f:7b:82:80:cd:74:5e:6f:68:7a:
         e0:de:2a:28:46:1d:c6:6b:4e:20:b6:af:1a:6a:76:4f:69:35:
         dc:2a:df:75:ae:f0:ca:b0:cd:59:26:93:75:c8:7b:05:db:5e:
         a8:55:ba:ce:26:2e:1a:e0:4b:4e:a7:7c:a6:bd:d4:ff:73:23:
         46:fe:d4:a0:2d:3b:10:27:41:be:98:7d:68:a0:5b:0a:59:4c:
         1e:8f:b9:bf:32:73:78:eb:0a:39:b0:83:ac:6c:67:31:2e:91:
         c2:96:55:b7:4f:09:31:8b
-----BEGIN CERTIFICATE-----
MIIFijCCA3KgAwIBAgIBATANBgkqhkiG9w0BAQUFADBtMRMwEQYDVQQKEwpNeSBD
b21wYW55MRAwDgYDVQQLEwdNeSBVbml0MRAwDgYDVQQHEwdNeSBUb3duMREwDwYD
VQQIEwhNeSBTdGF0ZTELMAkGA1UEBhMCVVMxEjAQBgNVBAMTCVNhbXBsZSBDQTAe
Fw0xNjA1MjYxMjQzNDZaFw0yNjA1MjQxMjQzNDZaMGExCzAJBgNVBAYTAlVTMREw
DwYDVQQIEwhNeSBTdGF0ZTETMBEGA1UEChMKTXkgQ29tcGFueTEWMBQGA1UECxMN
emF0by1sYi1hZ2VudDESMBAGA1UEAxMJbG9jYWxob3N0MIICIjANBgkqhkiG9w0B
AQEFAAOCAg8AMIICCgKCAgEAutj47pmgoOOC58G0a/d7mHYCz0xFA0OZbhn828WZ
RBKvfZ2gtcFws2FNaeDThzNYWEAtuPbD9HpiGKsj2o7xXZcPn3EOMd54BordvUg7
aUT99JPu70F+s6Y20twRY/jTDaGHk0aDGv+jbE7xaZf35DMJALda52a+J8h2AF0e
sJncdJ48KaJlN0VAEz8OO47L94qz9wOZ9AT5/Tqj9twBve5oGYXhywS9sK7NdFMj
5rJlShDK6snwNQs1jAlj2TT5aTKWtoHvFeJTVwAdpQ2IQOvHHFXSWhbYPLGGV1q/
IZMOqsKr8EqbjOptBOFk/BWPK9zwwQ77c2IPIY3EpskQ4YDIdguecT+tbMKoQbrZ
HxtsvJxwq4sJzDEoreZgo4SFOnS+8+hy4Hm0inrS6C7Q5P77oh0ZBjph29uN2Y23
UjodzR2pPvy7mEovaP8vYFfQWEW7a7zCYcm45XrlPWw5BhzVaUbMFhPLjnkp+ESS
YyY/pjOWaDAPEq1g4j/P7ROAv8rcMaHxwMGDJM+826klo82zPzGHo2d0+WD2e3D+
OO15AxKnviHzuwIjgu0XtfFWv5vU7DU3f2egFL78JV5btu1l/4jHbXgXonyuv0kS
54x+eDm0gplGJr2EF/JjFHdVaG1/hGwpGj3CHhEEutg7Pnp7ExYaXPptQ6GJ8oWx
uUMCAwEAAaNBMD8wCQYDVR0TBAIwADAdBgNVHQ4EFgQUuarkULC8V4+dnybzG+3g
AwmTZ3cwEwYDVR0lBAwwCgYIKwYBBQUHAwEwDQYJKoZIhvcNAQEFBQADggIBACM8
ZPsKpxXYG3/kPifO4Ggpjynuzo0qt8aNQ4CRot1D91/ZUULVylBNm6JTMOKbNK1e
QMZNaS0fTE5v3ZuJL3pcm4WRYWTH4fwvkKley9e4af+NCaEJV0hebodkAj8umAdT
caEdooidydb7BbnWUGrikfZI4s+iR8BIbpQGyrck0mc5uJo7FYJWjwuSxmFGTYP5
MGkrNnf+qlScuGqwVJ6fc4iz3WhCaPaMcXTn7DkdcmgF8tEoptndPmVn+I4GnSmr
9+jYhfEWBZQ1HeBmtiX0Gp4JoT5qw2anU4/04qVSsVuMl5hDs9OQTH4ihdddd6++
jp8ifQdFhhdfDa71FUdMg2hc6U7OKPmmXeo5OWQxH/cvr/LgVCTPPpXWFGVqLA8Z
ydqNDiToXEN2RfmV2M1xq5AYppFW7bsw0ZoRuDpUAoAHTv2bzEDuIqOj2vH5yJjq
Do0Dtrw5jX/lbHXpHTGtTrYnBK92o8v0aznNXIYFBsBvUTLSnPvX5J4ZZzwZArmB
9XZP+avbS3EnlV7Xx4pC3F0/L3uCgM10Xm9oeuDeKihGHcZrTiC2rxpqdk9pNdwq
33Wu8MqwzVkmk3XIewXbXqhVus4mLhrgS06nfKa91P9zI0b+1KAtOxAnQb6YfWig
WwpZTB6Pub8yc3jrCjmwg6xsZzEukcKWVbdPCTGL
-----END CERTIFICATE-----
