Certificate:
    Data:
        Version: 3 (0x2)
        Serial Number: 1 (0x1)
    Signature Algorithm: sha1WithRSAEncryption
        Issuer: O=My Company, OU=My Unit, L=My Town, ST=My State, C=US, CN=Sample CA
        Validity
            Not Before: May 26 17:53:56 2016 GMT
            Not After : May 24 17:53:56 2026 GMT
        Subject: C=US, ST=My State, O=My Company, OU=zato-lb-agent, CN=localhost
        Subject Public Key Info:
            Public Key Algorithm: rsaEncryption
                Public-Key: (4096 bit)
                Modulus:
                    00:b2:21:91:8b:5d:21:74:38:bc:3d:f2:5f:94:ba:
                    26:81:50:8a:7f:10:6f:9d:b5:a5:ff:39:e2:58:a8:
                    fe:ae:76:2a:e9:0f:6b:cb:22:eb:f1:53:b6:92:13:
                    10:01:4e:cc:16:32:07:d2:d0:bb:62:7f:48:35:94:
                    36:17:54:ea:e9:21:8c:3b:31:1b:8f:b0:7f:13:d9:
                    d3:cf:80:1e:ad:d9:8e:eb:99:95:b1:0d:3f:ec:db:
                    0e:7c:42:c0:29:37:b6:b6:3b:17:0d:a0:b5:03:20:
                    2d:ab:79:ab:02:f2:df:16:cf:c0:11:83:89:30:1b:
                    31:e8:63:ea:de:1f:f8:5a:d2:4b:59:b6:d2:09:46:
                    8a:9d:37:d0:7b:63:fb:c1:98:18:bf:e0:55:8c:c7:
                    a8:20:40:d6:90:c4:b6:04:ef:53:80:9e:b0:fa:26:
                    79:78:fb:ef:69:42:aa:bc:c1:aa:c1:95:e1:bf:55:
                    09:58:33:24:4f:a5:de:33:19:a4:4b:49:4b:f1:61:
                    a0:6e:3a:6f:81:cc:a2:c7:ea:32:b4:74:69:59:d9:
                    c6:39:b7:7f:ae:8b:40:9d:69:16:1b:93:af:07:02:
                    17:f3:dc:8c:40:6b:6f:ee:48:59:34:fe:6a:6c:f5:
                    68:fd:fb:20:8c:fa:99:9a:95:fb:d2:92:3b:53:8a:
                    3d:c3:0b:ab:de:1c:3d:49:48:b2:37:8e:8a:3b:b7:
                    e3:68:e8:b1:dd:96:7c:bb:94:d7:5e:76:9d:76:e6:
                    92:2a:89:48:02:26:9c:21:bc:9e:28:c1:e5:9f:df:
                    1d:78:40:30:d0:85:17:22:0e:d1:d5:2a:f1:41:c4:
                    b0:22:77:db:c9:dc:0b:22:b9:2a:f8:47:11:10:81:
                    48:c0:8f:54:e0:81:cf:9c:88:b2:7e:1f:85:a3:51:
                    c6:8b:56:25:3d:ac:1f:c2:65:6e:70:cb:d1:2e:0e:
                    c5:8a:62:e5:e3:ae:3b:a6:6c:e7:be:94:87:9e:d3:
                    6d:fe:76:19:fa:32:94:b9:12:64:9a:6c:26:b9:e3:
                    74:7b:e6:c2:f7:47:3f:8d:75:60:da:d0:30:4a:11:
                    51:ce:d7:47:ad:14:c0:0a:be:f0:26:0f:d3:4d:34:
                    94:13:5c:fa:2a:7d:b4:aa:f8:54:77:b9:b6:28:50:
                    27:65:7f:88:d9:7e:3b:14:37:60:84:50:a9:4c:6d:
                    1a:c9:0d:b1:7c:78:44:3d:69:6a:9e:51:f7:44:6b:
                    4a:cb:b3:3a:cb:e5:22:b9:ce:d1:d7:23:e0:34:50:
                    dd:bf:1e:16:c4:22:a7:86:77:cc:d6:88:92:bd:4a:
                    d0:e7:b0:e5:11:bf:22:71:7d:81:72:76:be:88:fc:
                    9d:41:d1
                Exponent: 65537 (0x10001)
        X509v3 extensions:
            X509v3 Basic Constraints: 
                CA:FALSE
            X509v3 Subject Key Identifier: 
                02:42:B7:C5:7D:07:2E:CF:7A:16:95:4C:4A:CA:B3:2A:4B:99:2E:40
            X509v3 Extended Key Usage: 
                TLS Web Server Authentication
    Signature Algorithm: sha1WithRSAEncryption
         c8:7a:50:0f:8a:7a:dd:fa:ba:4d:ca:92:bb:69:8c:90:f4:fc:
         72:8a:8d:12:2c:ce:fd:00:da:98:d0:01:37:c3:8e:a3:ab:7f:
         11:c8:ce:2b:19:0f:42:9f:64:8e:1c:88:58:77:1b:b8:6e:23:
         91:74:10:97:77:c4:e7:43:00:a1:8d:6a:c4:65:29:80:b4:1f:
         50:27:da:77:dc:91:e9:12:a2:4e:26:cb:9a:1b:93:eb:e5:34:
         a1:cb:1c:dc:52:80:fa:65:f2:a5:1a:7d:98:e1:80:bd:1d:87:
         50:91:84:ad:65:28:f2:ea:f5:a3:e0:4c:26:2d:c0:9b:c6:16:
         b5:c9:41:88:ca:f1:bb:99:65:83:ab:b8:e2:78:bf:0d:62:ca:
         52:ac:98:fb:3f:1d:d0:b7:41:38:57:44:41:62:bb:a9:0a:eb:
         11:44:c6:c5:36:c7:6e:4f:f0:23:5a:db:53:75:b1:19:89:58:
         eb:98:ce:f1:6c:f4:b6:ab:0b:0a:ef:fa:77:28:fd:e4:50:8f:
         eb:3e:83:82:02:42:b4:a4:d0:f2:d0:c7:eb:25:e9:de:6a:ca:
         8a:98:45:47:55:bf:07:00:8b:7d:01:e8:19:7e:cb:bf:17:b4:
         63:1f:ef:0a:d8:c2:6e:86:70:76:4a:af:8d:21:44:02:aa:27:
         d4:0e:c5:1a:dc:a5:ef:e2:f4:d8:ce:3d:2a:5e:d0:b5:b1:86:
         71:ac:bf:b4:0a:c8:20:4c:04:fd:26:7f:6d:ea:36:99:f5:f6:
         53:a8:8d:71:18:70:ca:ff:ef:b9:8e:df:7f:06:71:bb:de:f8:
         46:73:85:14:95:f7:f2:83:b5:69:f9:4d:9b:f7:0a:63:d0:de:
         1c:76:03:73:bc:95:1d:de:16:e0:4e:38:7e:56:9e:8d:a1:d3:
         96:f6:24:ac:46:7b:bd:5f:42:34:06:ea:6b:e0:4a:19:ce:46:
         db:0b:c3:52:aa:a8:4d:3b:9a:f3:29:29:b9:75:ec:16:c1:06:
         f6:37:ea:ec:6b:03:6a:74:4c:7a:a4:4e:f5:46:85:ee:31:e9:
         87:e2:b2:a9:47:a1:82:62:49:84:e9:85:91:8f:ba:bb:c4:aa:
         87:4c:93:2c:4e:7c:68:99:8f:1d:96:9d:2c:1c:1a:b7:e3:0a:
         98:c7:36:f2:f9:97:68:d0:07:d8:6e:cb:1b:d1:ec:2e:67:77:
         15:a7:92:05:15:45:1c:1c:44:22:2e:a5:61:32:29:cb:33:ad:
         3b:33:7c:13:aa:8b:ec:53:79:0e:03:c7:a5:cf:56:a2:b2:58:
         92:1e:8e:cb:43:af:f3:73:4e:a8:9b:50:30:68:83:3f:40:f3:
         c6:b5:5a:a2:dd:9b:35:19
-----BEGIN CERTIFICATE-----
MIIFijCCA3KgAwIBAgIBATANBgkqhkiG9w0BAQUFADBtMRMwEQYDVQQKEwpNeSBD
b21wYW55MRAwDgYDVQQLEwdNeSBVbml0MRAwDgYDVQQHEwdNeSBUb3duMREwDwYD
VQQIEwhNeSBTdGF0ZTELMAkGA1UEBhMCVVMxEjAQBgNVBAMTCVNhbXBsZSBDQTAe
Fw0xNjA1MjYxNzUzNTZaFw0yNjA1MjQxNzUzNTZaMGExCzAJBgNVBAYTAlVTMREw
DwYDVQQIEwhNeSBTdGF0ZTETMBEGA1UEChMKTXkgQ29tcGFueTEWMBQGA1UECxMN
emF0by1sYi1hZ2VudDESMBAGA1UEAxMJbG9jYWxob3N0MIICIjANBgkqhkiG9w0B
AQEFAAOCAg8AMIICCgKCAgEAsiGRi10hdDi8PfJflLomgVCKfxBvnbWl/zniWKj+
rnYq6Q9ryyLr8VO2khMQAU7MFjIH0tC7Yn9INZQ2F1Tq6SGMOzEbj7B/E9nTz4Ae
rdmO65mVsQ0/7NsOfELAKTe2tjsXDaC1AyAtq3mrAvLfFs/AEYOJMBsx6GPq3h/4
WtJLWbbSCUaKnTfQe2P7wZgYv+BVjMeoIEDWkMS2BO9TgJ6w+iZ5ePvvaUKqvMGq
wZXhv1UJWDMkT6XeMxmkS0lL8WGgbjpvgcyix+oytHRpWdnGObd/rotAnWkWG5Ov
BwIX89yMQGtv7khZNP5qbPVo/fsgjPqZmpX70pI7U4o9wwur3hw9SUiyN46KO7fj
aOix3ZZ8u5TXXnadduaSKolIAiacIbyeKMHln98deEAw0IUXIg7R1SrxQcSwInfb
ydwLIrkq+EcREIFIwI9U4IHPnIiyfh+Fo1HGi1YlPawfwmVucMvRLg7FimLl4647
pmznvpSHntNt/nYZ+jKUuRJkmmwmueN0e+bC90c/jXVg2tAwShFRztdHrRTACr7w
Jg/TTTSUE1z6Kn20qvhUd7m2KFAnZX+I2X47FDdghFCpTG0ayQ2xfHhEPWlqnlH3
RGtKy7M6y+Uiuc7R1yPgNFDdvx4WxCKnhnfM1oiSvUrQ57DlEb8icX2Bcna+iPyd
QdECAwEAAaNBMD8wCQYDVR0TBAIwADAdBgNVHQ4EFgQUAkK3xX0HLs96FpVMSsqz
KkuZLkAwEwYDVR0lBAwwCgYIKwYBBQUHAwEwDQYJKoZIhvcNAQEFBQADggIBAMh6
UA+Ket36uk3KkrtpjJD0/HKKjRIszv0A2pjQATfDjqOrfxHIzisZD0KfZI4ciFh3
G7huI5F0EJd3xOdDAKGNasRlKYC0H1An2nfckekSok4my5obk+vlNKHLHNxSgPpl
8qUafZjhgL0dh1CRhK1lKPLq9aPgTCYtwJvGFrXJQYjK8buZZYOruOJ4vw1iylKs
mPs/HdC3QThXREFiu6kK6xFExsU2x25P8CNa21N1sRmJWOuYzvFs9LarCwrv+nco
/eRQj+s+g4ICQrSk0PLQx+sl6d5qyoqYRUdVvwcAi30B6Bl+y78XtGMf7wrYwm6G
cHZKr40hRAKqJ9QOxRrcpe/i9NjOPSpe0LWxhnGsv7QKyCBMBP0mf23qNpn19lOo
jXEYcMr/77mO338Gcbve+EZzhRSV9/KDtWn5TZv3CmPQ3hx2A3O8lR3eFuBOOH5W
no2h05b2JKxGe71fQjQG6mvgShnORtsLw1KqqE07mvMpKbl17BbBBvY36uxrA2p0
THqkTvVGhe4x6YfisqlHoYJiSYTphZGPurvEqodMkyxOfGiZjx2WnSwcGrfjCpjH
NvL5l2jQB9huyxvR7C5ndxWnkgUVRRwcRCIupWEyKcszrTszfBOqi+xTeQ4Dx6XP
VqKyWJIejstDr/NzTqibUDBogz9A88a1WqLdmzUZ
-----END CERTIFICATE-----
