Certificate:
    Data:
        Version: 3 (0x2)
        Serial Number: 3 (0x3)
    Signature Algorithm: sha1WithRSAEncryption
        Issuer: O=My Company, OU=My Unit, L=My Town, ST=My State, C=US, CN=Sample CA
        Validity
            Not Before: May 26 17:53:57 2016 GMT
            Not After : May 24 17:53:57 2026 GMT
        Subject: C=US, ST=My State, O=My Company, OU=quickstart-928340:server1, CN=localhost
        Subject Public Key Info:
            Public Key Algorithm: rsaEncryption
                Public-Key: (4096 bit)
                Modulus:
                    00:cd:8a:d0:d6:87:8f:f1:bd:ec:cc:5a:59:d5:4f:
                    5a:12:cb:fa:57:1c:f0:57:10:b8:0f:05:61:a1:1a:
                    04:3d:43:ca:28:79:eb:e8:c6:5e:01:31:0d:4f:de:
                    90:e7:08:e7:3d:8e:7c:3c:61:47:3c:ec:ab:ef:01:
                    63:dd:ad:59:67:10:c0:42:a9:2b:16:4a:cc:07:0b:
                    2d:c1:dc:54:bf:2b:44:d0:dc:31:5f:dc:1d:2e:3c:
                    f5:a5:19:fb:4f:bf:83:1f:cd:d2:de:20:fc:f0:e3:
                    69:e8:e3:a1:a1:2c:d2:bb:fd:6b:a9:9f:12:6c:e5:
                    c4:93:91:63:10:e0:3d:84:d3:53:dd:a2:78:8d:26:
                    fc:5c:81:61:f2:29:c6:97:39:01:47:6b:1d:53:d1:
                    f3:ef:e4:1b:da:54:ff:38:d3:b2:36:2b:c2:c1:04:
                    34:90:ea:d1:a1:5e:ae:b4:d1:6e:80:1b:57:c3:f8:
                    ae:24:0f:7b:8b:41:6b:93:85:d9:7b:3c:8d:48:15:
                    0d:d1:a3:e9:88:a7:cf:00:07:38:d8:77:31:3b:8b:
                    b0:bb:90:0c:fd:16:fc:cc:9d:60:f0:95:fc:de:c2:
                    94:7d:cd:fe:4f:0a:61:cc:93:84:dd:b3:1d:70:5c:
                    a8:7b:f7:d8:67:83:59:3c:87:81:09:62:41:17:f8:
                    30:fd:26:08:1d:7c:0f:dd:9a:c9:68:cc:94:6f:f8:
                    ee:75:f7:39:9f:56:b6:95:54:b2:ca:09:19:3a:a0:
                    34:5f:a0:bf:85:1f:e3:05:a3:a3:e2:86:58:1d:64:
                    43:1c:4a:11:2e:cf:81:e9:da:cb:bc:cc:02:c1:f0:
                    cc:cf:47:ae:8a:06:da:01:6e:6e:a9:12:1a:61:dd:
                    42:95:18:d0:c4:5a:5d:e1:bd:1a:90:c8:76:37:89:
                    dd:7a:b0:da:8e:b4:74:33:a0:5d:38:cc:6e:a0:36:
                    62:46:27:8d:d0:a1:db:de:ce:8f:ba:26:97:d4:f3:
                    d8:78:f1:a5:db:5c:3c:b1:76:08:71:2f:bb:2d:f3:
                    21:f3:38:5b:7a:81:ea:a7:64:a9:b2:af:1e:c0:8c:
                    e8:58:3e:71:60:0f:77:a7:e0:70:1e:1c:b8:80:54:
                    c3:de:fc:fe:e8:46:87:cc:d6:fc:24:d7:c4:36:dd:
                    5f:95:fd:bc:5f:80:c7:cb:5f:e5:6f:63:bd:63:50:
                    67:ea:0b:ce:18:4d:24:a0:5e:84:51:9c:d3:24:95:
                    6b:a1:5b:db:b6:11:b6:b8:94:dc:9e:f1:a7:3c:83:
                    ea:19:3d:ac:d8:61:52:ab:39:45:10:5e:b8:49:92:
                    b4:93:af:55:62:fa:c2:df:c0:72:d2:ba:ae:08:29:
                    6b:0c:a7
                Exponent: 65537 (0x10001)
        X509v3 extensions:
            X509v3 Basic Constraints: 
                CA:FALSE
            X509v3 Subject Key Identifier: 
                F2:CF:19:FE:C8:5B:F5:E7:5C:74:7B:CB:20:D7:6B:67:5E:5F:CE:2F
            X509v3 Extended Key Usage: 
                TLS Web Server Authentication, TLS Web Client Authentication
    Signature Algorithm: sha1WithRSAEncryption
         b6:93:be:4f:fe:89:a7:a2:74:cc:5a:fa:4d:e9:5d:83:55:cd:
         cc:52:43:02:16:c4:16:99:12:05:19:06:8d:a5:b9:a4:61:f3:
         66:12:92:80:55:fb:53:17:a0:eb:c9:fd:96:38:c3:13:96:6f:
         1c:bb:5f:89:c9:fe:aa:2a:20:4a:40:5f:d4:ea:d4:30:a9:27:
         86:07:b5:2b:e1:19:d9:ef:47:f0:99:36:cc:d8:ac:aa:1f:71:
         37:58:0a:76:7c:85:58:dd:42:60:ac:23:7d:c5:35:bc:27:72:
         1f:68:ca:5c:e0:cf:65:99:6e:7b:f0:04:c5:42:ae:e5:05:b1:
         23:2e:c5:af:32:fc:96:db:d8:7e:ce:0e:0a:77:5c:7f:ff:62:
         7a:61:24:8b:fc:96:d1:69:cd:2b:ba:c2:33:b9:cf:dd:d5:8c:
         a4:2a:b8:24:2c:3c:2b:8c:35:db:e2:c4:9c:fa:b2:0c:74:a6:
         80:a7:1f:81:f5:2e:21:12:36:a3:b3:72:c3:40:73:7e:4a:a4:
         6b:a3:08:dd:ae:de:9a:17:88:3d:a3:bd:b5:64:c6:bc:24:dc:
         9a:ee:72:66:6c:96:67:09:ab:ea:9c:99:52:e8:f6:26:d9:66:
         e6:fd:d2:d4:65:c1:ba:b8:45:ce:c7:c9:86:a1:f5:3c:e8:83:
         41:01:21:95:2f:17:f5:1f:fd:3c:d2:1b:ca:d3:03:3b:64:61:
         77:9f:20:c8:99:cd:64:d8:b7:e8:ea:af:60:26:66:3e:d0:68:
         05:42:ba:7a:c8:d2:e4:73:08:81:5e:96:10:c1:00:70:a2:27:
         05:a2:9c:e1:3b:30:d1:05:41:ba:fa:d3:df:b8:84:0e:f3:ef:
         06:02:16:65:5b:76:fe:68:34:29:e4:2c:41:8e:07:0e:83:85:
         28:4e:0d:98:a9:ef:99:4e:a1:1d:ff:8a:8f:fd:fd:82:79:0e:
         bc:52:a4:8d:a5:7c:44:b0:04:e9:d8:41:f5:6f:3c:d4:cd:bf:
         e7:d6:7a:1d:eb:cd:cc:19:3a:bd:3b:5a:16:10:15:a6:dd:16:
         92:af:de:41:6b:24:41:a4:02:58:2f:09:2b:7f:f9:1f:ae:9a:
         af:4b:45:fc:5a:e4:18:62:97:a9:70:d5:8c:0a:bd:85:a1:47:
         63:ab:54:53:e0:b1:17:c9:74:a6:b2:fd:34:91:81:6d:56:c9:
         cb:e1:60:14:6f:2b:2c:36:a6:fb:20:ee:41:d9:c9:ea:48:47:
         ed:a5:89:06:42:02:4f:e7:33:ae:20:1f:7b:79:82:f4:c2:5f:
         07:d5:76:c0:1c:84:63:b5:bf:e4:30:96:e9:ff:6b:33:bb:dd:
         26:c6:83:76:e0:1f:ad:f2
-----BEGIN CERTIFICATE-----
MIIFoDCCA4igAwIBAgIBAzANBgkqhkiG9w0BAQUFADBtMRMwEQYDVQQKEwpNeSBD
b21wYW55MRAwDgYDVQQLEwdNeSBVbml0MRAwDgYDVQQHEwdNeSBUb3duMREwDwYD
VQQIEwhNeSBTdGF0ZTELMAkGA1UEBhMCVVMxEjAQBgNVBAMTCVNhbXBsZSBDQTAe
Fw0xNjA1MjYxNzUzNTdaFw0yNjA1MjQxNzUzNTdaMG0xCzAJBgNVBAYTAlVTMREw
DwYDVQQIEwhNeSBTdGF0ZTETMBEGA1UEChMKTXkgQ29tcGFueTEiMCAGA1UECxMZ
cXVpY2tzdGFydC05MjgzNDA6c2VydmVyMTESMBAGA1UEAxMJbG9jYWxob3N0MIIC
IjANBgkqhkiG9w0BAQEFAAOCAg8AMIICCgKCAgEAzYrQ1oeP8b3szFpZ1U9aEsv6
VxzwVxC4DwVhoRoEPUPKKHnr6MZeATENT96Q5wjnPY58PGFHPOyr7wFj3a1ZZxDA
QqkrFkrMBwstwdxUvytE0NwxX9wdLjz1pRn7T7+DH83S3iD88ONp6OOhoSzSu/1r
qZ8SbOXEk5FjEOA9hNNT3aJ4jSb8XIFh8inGlzkBR2sdU9Hz7+Qb2lT/ONOyNivC
wQQ0kOrRoV6utNFugBtXw/iuJA97i0Frk4XZezyNSBUN0aPpiKfPAAc42HcxO4uw
u5AM/Rb8zJ1g8JX83sKUfc3+TwphzJOE3bMdcFyoe/fYZ4NZPIeBCWJBF/gw/SYI
HXwP3ZrJaMyUb/judfc5n1a2lVSyygkZOqA0X6C/hR/jBaOj4oZYHWRDHEoRLs+B
6drLvMwCwfDMz0euigbaAW5uqRIaYd1ClRjQxFpd4b0akMh2N4nderDajrR0M6Bd
OMxuoDZiRieN0KHb3s6PuiaX1PPYePGl21w8sXYIcS+7LfMh8zhbeoHqp2Spsq8e
wIzoWD5xYA93p+BwHhy4gFTD3vz+6EaHzNb8JNfENt1flf28X4DHy1/lb2O9Y1Bn
6gvOGE0koF6EUZzTJJVroVvbthG2uJTcnvGnPIPqGT2s2GFSqzlFEF64SZK0k69V
YvrC38By0rquCClrDKcCAwEAAaNLMEkwCQYDVR0TBAIwADAdBgNVHQ4EFgQU8s8Z
/shb9edcdHvLINdrZ15fzi8wHQYDVR0lBBYwFAYIKwYBBQUHAwEGCCsGAQUFBwMC
MA0GCSqGSIb3DQEBBQUAA4ICAQC2k75P/omnonTMWvpN6V2DVc3MUkMCFsQWmRIF
GQaNpbmkYfNmEpKAVftTF6Dryf2WOMMTlm8cu1+Jyf6qKiBKQF/U6tQwqSeGB7Ur
4RnZ70fwmTbM2KyqH3E3WAp2fIVY3UJgrCN9xTW8J3IfaMpc4M9lmW578ATFQq7l
BbEjLsWvMvyW29h+zg4Kd1x//2J6YSSL/JbRac0rusIzuc/d1YykKrgkLDwrjDXb
4sSc+rIMdKaApx+B9S4hEjajs3LDQHN+SqRrowjdrt6aF4g9o721ZMa8JNya7nJm
bJZnCavqnJlS6PYm2Wbm/dLUZcG6uEXOx8mGofU86INBASGVLxf1H/080hvK0wM7
ZGF3nyDImc1k2Lfo6q9gJmY+0GgFQrp6yNLkcwiBXpYQwQBwoicFopzhOzDRBUG6
+tPfuIQO8+8GAhZlW3b+aDQp5CxBjgcOg4UoTg2Yqe+ZTqEd/4qP/f2CeQ68UqSN
pXxEsATp2EH1bzzUzb/n1nod683MGTq9O1oWEBWm3RaSr95BayRBpAJYLwkrf/kf
rpqvS0X8WuQYYpepcNWMCr2FoUdjq1RT4LEXyXSmsv00kYFtVsnL4WAUbyssNqb7
IO5B2cnqSEftpYkGQgJP5zOuIB97eYL0wl8H1XbAHIRjtb/kMJbp/2szu90mxoN2
4B+t8g==
-----END CERTIFICATE-----
