Certificate:
    Data:
        Version: 3 (0x2)
        Serial Number: 4 (0x4)
    Signature Algorithm: sha1WithRSAEncryption
        Issuer: O=My Company, OU=My Unit, L=My Town, ST=My State, C=US, CN=Sample CA
        Validity
            Not Before: May 26 17:53:58 2016 GMT
            Not After : May 24 17:53:58 2026 GMT
        Subject: C=US, ST=My State, O=My Company, OU=quickstart-928340:server2, CN=localhost
        Subject Public Key Info:
            Public Key Algorithm: rsaEncryption
                Public-Key: (4096 bit)
                Modulus:
                    00:c3:12:27:b1:10:47:4f:05:76:fd:89:95:d8:64:
                    65:32:83:c5:6c:cd:93:0c:a2:24:5a:c3:e3:70:e9:
                    02:2e:4e:14:17:3a:12:13:3b:36:0e:cd:3d:2d:09:
                    ce:33:db:31:70:8a:41:46:02:3c:df:3b:25:ad:cb:
                    60:fe:ab:4e:a9:7f:46:92:15:75:91:65:a8:46:2e:
                    27:19:60:1a:f1:27:8a:bb:f3:5a:7a:1a:5f:0d:ad:
                    e8:bc:45:b3:73:36:1b:f6:91:04:59:c4:0f:04:51:
                    f1:b7:b0:6c:9e:88:48:13:d1:7f:48:19:ed:5e:bb:
                    05:a8:4a:2a:08:9d:5a:ad:67:19:7e:2e:2e:f7:dc:
                    20:d5:ec:88:72:f1:81:4d:4f:35:b5:50:93:a9:00:
                    80:7b:e9:00:7b:a1:d5:8f:f3:81:2d:75:8a:c3:e6:
                    eb:d1:44:94:74:08:3b:f7:ca:7d:45:2f:b6:58:53:
                    19:a5:6e:d6:57:e7:54:98:6b:3d:d5:82:3a:f4:78:
                    c7:72:d4:ab:6c:1f:27:ca:44:01:de:3e:fc:ed:10:
                    16:57:e9:22:3e:5e:fb:33:4c:56:db:6a:cd:b4:89:
                    c8:5e:5c:ff:f0:02:3a:37:dc:1f:0a:7a:02:db:ff:
                    8f:b1:de:ba:3e:01:fc:36:81:a9:d2:aa:d8:4c:12:
                    29:b3:af:2a:72:c8:72:22:ff:4e:24:82:9c:2e:8a:
                    65:e5:bf:bd:43:45:6f:99:5a:6b:a7:df:57:53:d6:
                    7c:0c:d7:67:50:00:9b:14:4e:39:8a:20:7a:24:ac:
                    84:5c:f7:b1:28:77:66:7b:a6:bc:9a:56:55:52:b0:
                    3c:3d:ad:63:7b:56:28:8e:58:24:62:da:46:a6:18:
                    20:9a:5b:d0:1b:86:cc:51:b1:65:88:c4:a5:77:b8:
                    3d:85:7e:d9:70:76:62:60:99:50:3f:ac:c9:cd:93:
                    18:e2:db:ad:40:f1:c8:dd:51:7c:11:07:69:07:93:
                    56:50:5b:ad:a0:46:c1:78:23:5f:bf:f0:da:76:be:
                    7f:3b:90:75:8b:aa:ed:bb:18:6a:b1:e1:ff:15:b4:
                    d5:c4:c4:2b:4b:e0:76:c9:f2:c3:de:b5:e8:01:ec:
                    da:cd:8c:e7:58:7a:97:cf:b0:20:a3:8c:cd:c3:d1:
                    1e:a0:3c:a9:d0:30:93:bc:c4:6d:29:10:af:54:83:
                    51:9c:95:de:1b:20:d2:29:79:2f:c5:ea:0d:6d:b8:
                    9f:09:a1:16:8a:05:bb:42:e7:16:86:e9:13:57:f1:
                    d4:8c:e6:95:df:ca:57:98:72:6d:61:61:23:4b:fa:
                    35:34:15:e5:d3:bd:78:13:2e:4d:35:5d:2e:c0:ed:
                    89:7a:53
                Exponent: 65537 (0x10001)
        X509v3 extensions:
            X509v3 Basic Constraints: 
                CA:FALSE
            X509v3 Subject Key Identifier: 
                5E:32:BE:0D:D9:11:7D:46:AA:47:65:8F:36:0D:D8:84:F3:52:D0:3D
            X509v3 Extended Key Usage: 
                TLS Web Server Authentication, TLS Web Client Authentication
    Signature Algorithm: sha1WithRSAEncryption
         6b:cf:f7:1e:24:e7:94:79:7d:a9:10:9b:98:0f:75:3b:a5:88:
         a2:16:7e:bd:f7:6e:3d:06:2b:b4:83:ed:e3:39:1f:34:ea:49:
         50:3a:0b:14:65:9b:a2:d6:16:9a:91:ce:7c:a2:fd:27:b5:98:
         f4:1f:63:58:27:6a:b3:b5:43:b4:c7:c3:9e:fe:23:bf:78:ac:
         73:5b:97:50:75:41:f3:f5:ce:b5:6e:5e:95:e7:60:65:81:58:
         82:38:c6:64:03:13:56:9a:5c:81:00:9a:99:90:dc:75:c6:6d:
         d7:c7:ab:eb:50:a2:6d:19:3f:81:fd:74:18:b3:7c:a1:3a:00:
         52:73:ec:7a:28:75:f3:96:28:bb:cd:b9:7b:94:36:39:a4:cb:
         3d:9e:e8:44:aa:3a:0e:6d:3b:80:e1:6a:66:f5:7b:a1:9c:5b:
         a6:74:d1:23:35:2c:2b:c4:41:c8:7f:df:47:96:bc:2c:7f:c0:
         c3:a3:6f:a2:ff:58:1d:3b:46:98:20:38:85:34:f5:0e:18:f8:
         7d:72:c5:47:34:4e:bd:60:cb:1d:98:af:81:f3:35:30:e9:d8:
         e1:f0:d8:8e:94:be:94:b8:2a:7a:31:55:da:4f:01:67:58:a9:
         a9:d8:ce:9c:2e:90:41:cc:ee:92:b7:7f:de:e6:6a:3d:83:25:
         07:f7:95:27:bf:f1:45:44:dd:f6:f2:5f:35:63:06:da:f6:f0:
         7c:12:6b:d7:88:b3:a2:51:fa:d6:0b:77:40:18:74:f8:60:55:
         76:cb:e2:26:79:09:60:e4:7b:9e:2d:72:da:77:d2:2d:f7:b5:
         2c:33:29:15:bd:ae:91:ac:1e:32:b8:a0:06:57:e9:f0:e0:e5:
         f0:fa:bf:0b:0d:89:9e:fd:cf:e1:94:f0:b8:b3:26:61:d0:cb:
         05:b5:06:d4:fd:40:b2:e5:f7:72:98:62:d8:dd:9b:f7:7d:44:
         fe:c5:16:2f:20:36:2d:63:44:4a:e4:30:d4:64:ee:55:ac:03:
         f7:be:cd:92:e2:bd:7f:f5:61:4c:23:c2:d5:40:35:f4:4e:12:
         e8:e7:11:7f:d4:35:41:8e:36:7d:08:42:b3:ad:f8:a4:1a:9d:
         c0:4e:b2:f5:cf:bf:35:b7:81:08:72:f4:d4:72:77:c5:4b:ed:
         25:1e:2e:93:1e:aa:e1:4e:99:d4:08:ce:8f:60:db:e0:db:e4:
         b2:a9:81:c2:26:f0:67:01:2a:aa:55:81:5e:20:db:eb:ba:c9:
         32:b9:b4:72:40:60:c1:1f:bb:69:7c:78:fa:28:7b:c4:65:2b:
         f4:26:a8:21:6a:1b:eb:57:79:87:22:d2:68:6e:3a:20:fa:e1:
         6a:31:89:37:ca:2d:7e:ab
-----BEGIN CERTIFICATE-----
MIIFoDCCA4igAwIBAgIBBDANBgkqhkiG9w0BAQUFADBtMRMwEQYDVQQKEwpNeSBD
b21wYW55MRAwDgYDVQQLEwdNeSBVbml0MRAwDgYDVQQHEwdNeSBUb3duMREwDwYD
VQQIEwhNeSBTdGF0ZTELMAkGA1UEBhMCVVMxEjAQBgNVBAMTCVNhbXBsZSBDQTAe
Fw0xNjA1MjYxNzUzNThaFw0yNjA1MjQxNzUzNThaMG0xCzAJBgNVBAYTAlVTMREw
DwYDVQQIEwhNeSBTdGF0ZTETMBEGA1UEChMKTXkgQ29tcGFueTEiMCAGA1UECxMZ
cXVpY2tzdGFydC05MjgzNDA6c2VydmVyMjESMBAGA1UEAxMJbG9jYWxob3N0MIIC
IjANBgkqhkiG9w0BAQEFAAOCAg8AMIICCgKCAgEAwxInsRBHTwV2/YmV2GRlMoPF
bM2TDKIkWsPjcOkCLk4UFzoSEzs2Ds09LQnOM9sxcIpBRgI83zslrctg/qtOqX9G
khV1kWWoRi4nGWAa8SeKu/NaehpfDa3ovEWzczYb9pEEWcQPBFHxt7BsnohIE9F/
SBntXrsFqEoqCJ1arWcZfi4u99wg1eyIcvGBTU81tVCTqQCAe+kAe6HVj/OBLXWK
w+br0USUdAg798p9RS+2WFMZpW7WV+dUmGs91YI69HjHctSrbB8nykQB3j787RAW
V+kiPl77M0xW22rNtInIXlz/8AI6N9wfCnoC2/+Psd66PgH8NoGp0qrYTBIps68q
cshyIv9OJIKcLopl5b+9Q0VvmVprp99XU9Z8DNdnUACbFE45iiB6JKyEXPexKHdm
e6a8mlZVUrA8Pa1je1YojlgkYtpGphggmlvQG4bMUbFliMSld7g9hX7ZcHZiYJlQ
P6zJzZMY4tutQPHI3VF8EQdpB5NWUFutoEbBeCNfv/Dadr5/O5B1i6rtuxhqseH/
FbTVxMQrS+B2yfLD3rXoAezazYznWHqXz7Ago4zNw9EeoDyp0DCTvMRtKRCvVINR
nJXeGyDSKXkvxeoNbbifCaEWigW7QucWhukTV/HUjOaV38pXmHJtYWEjS/o1NBXl
0714Ey5NNV0uwO2JelMCAwEAAaNLMEkwCQYDVR0TBAIwADAdBgNVHQ4EFgQUXjK+
DdkRfUaqR2WPNg3YhPNS0D0wHQYDVR0lBBYwFAYIKwYBBQUHAwEGCCsGAQUFBwMC
MA0GCSqGSIb3DQEBBQUAA4ICAQBrz/ceJOeUeX2pEJuYD3U7pYiiFn699249Biu0
g+3jOR806klQOgsUZZui1haakc58ov0ntZj0H2NYJ2qztUO0x8Oe/iO/eKxzW5dQ
dUHz9c61bl6V52BlgViCOMZkAxNWmlyBAJqZkNx1xm3Xx6vrUKJtGT+B/XQYs3yh
OgBSc+x6KHXzlii7zbl7lDY5pMs9nuhEqjoObTuA4Wpm9XuhnFumdNEjNSwrxEHI
f99Hlrwsf8DDo2+i/1gdO0aYIDiFNPUOGPh9csVHNE69YMsdmK+B8zUw6djh8NiO
lL6UuCp6MVXaTwFnWKmp2M6cLpBBzO6St3/e5mo9gyUH95Unv/FFRN328l81Ywba
9vB8EmvXiLOiUfrWC3dAGHT4YFV2y+ImeQlg5HueLXLad9It97UsMykVva6RrB4y
uKAGV+nw4OXw+r8LDYme/c/hlPC4syZh0MsFtQbU/UCy5fdymGLY3Zv3fUT+xRYv
IDYtY0RK5DDUZO5VrAP3vs2S4r1/9WFMI8LVQDX0ThLo5xF/1DVBjjZ9CEKzrfik
Gp3ATrL1z781t4EIcvTUcnfFS+0lHi6THqrhTpnUCM6PYNvg2+SyqYHCJvBnASqq
VYFeINvruskyubRyQGDBH7tpfHj6KHvEZSv0JqghahvrV3mHItJobjog+uFqMYk3
yi1+qw==
-----END CERTIFICATE-----
