Certificate:
    Data:
        Version: 3 (0x2)
        Serial Number: 2 (0x2)
    Signature Algorithm: sha1WithRSAEncryption
        Issuer: O=My Company, OU=My Unit, L=My Town, ST=My State, C=US, CN=Sample CA
        Validity
            Not Before: May 26 17:53:56 2016 GMT
            Not After : May 24 17:53:56 2026 GMT
        Subject: C=US, ST=My State, O=My Company, OU=web-admin, CN=localhost
        Subject Public Key Info:
            Public Key Algorithm: rsaEncryption
                Public-Key: (4096 bit)
                Modulus:
                    00:bb:ee:df:b8:10:49:8b:88:fa:99:21:df:8b:75:
                    79:b7:f9:7f:e6:e5:5d:bf:47:c8:51:eb:1d:0e:99:
                    8c:20:f4:21:bb:43:e9:2d:6a:61:52:56:0e:61:8c:
                    44:10:77:7f:7f:db:96:11:c2:f4:15:29:19:dd:bb:
                    0f:28:65:4e:60:48:2c:6b:81:2d:ea:4e:57:5f:30:
                    37:63:7e:c6:54:0b:ee:8e:fe:30:04:34:e8:20:21:
                    ac:1c:4d:43:bb:c5:a9:f1:6e:25:cc:62:c5:6e:31:
                    b1:82:4e:f4:8c:cc:9a:9b:f3:97:9b:f6:76:81:98:
                    34:bc:ae:b5:65:b5:d2:53:f5:f2:e4:5f:2c:fd:2c:
                    23:b0:1c:6c:48:ad:e5:a7:05:27:0a:65:0f:8b:6c:
                    71:5b:24:65:2b:96:d9:6b:73:56:31:0b:2f:24:4c:
                    4e:83:82:55:0d:e0:42:9c:28:dd:e0:9d:55:05:45:
                    48:f2:ae:40:f9:e4:e2:10:2f:3d:37:d8:cc:69:46:
                    aa:d2:54:ff:65:0f:e4:e8:c6:fe:c0:d2:d8:5f:49:
                    6b:37:64:67:a9:af:c5:7c:e2:b8:d7:9f:25:dc:f6:
                    88:4a:e8:a1:b4:0f:52:8b:fe:e7:53:a5:6c:0c:15:
                    58:33:10:20:4d:35:df:cc:fe:66:ed:cc:c8:a1:c0:
                    19:5c:d1:38:01:c0:10:0b:21:05:34:80:31:9c:02:
                    dd:9a:e7:7d:4e:79:d4:78:27:94:b6:9d:36:de:ab:
                    0f:c6:95:b9:47:db:3e:50:a8:db:c4:5f:f5:e6:86:
                    94:e6:ef:c7:cc:0e:99:68:eb:21:df:81:28:79:ca:
                    22:0d:8d:10:14:b3:98:6d:d4:37:7d:0b:17:b0:2c:
                    f7:8e:34:21:e2:ba:4a:0d:92:5b:83:90:e1:08:85:
                    6a:01:7c:5a:1a:6e:6e:04:83:95:ca:08:58:04:ea:
                    14:a0:33:dd:dc:b2:37:02:c7:3c:0e:53:02:6a:d7:
                    89:76:09:d0:1c:19:ea:e8:af:5e:31:8a:ee:f3:d5:
                    da:6a:e4:a1:6c:10:c2:6c:bb:43:36:75:df:7c:40:
                    27:25:f7:30:fa:12:74:1a:29:8a:b0:2f:77:25:89:
                    35:5b:15:dc:56:7b:31:7e:13:20:40:e3:7c:70:35:
                    54:83:fc:d8:63:27:cb:82:82:5f:a7:88:12:f5:4d:
                    2d:bf:bd:45:43:f5:b0:5f:d4:04:cb:55:bd:e6:cb:
                    43:e9:7a:54:7d:a3:ec:e5:9d:61:43:e5:d9:6b:a9:
                    37:76:7f:bb:da:62:a7:41:8e:03:dd:86:6b:fa:4b:
                    de:43:21:f2:8e:8f:b4:6d:c7:ac:12:3c:80:b0:b5:
                    f4:2c:fb
                Exponent: 65537 (0x10001)
        X509v3 extensions:
            X509v3 Basic Constraints: 
                CA:FALSE
            X509v3 Subject Key Identifier: 
                5B:37:71:F3:89:8B:9F:6F:8F:40:C2:25:DD:CF:70:76:25:0A:F0:85
            X509v3 Extended Key Usage: 
                TLS Web Server Authentication, TLS Web Client Authentication
    Signature Algorithm: sha1WithRSAEncryption
         31:4e:e2:50:e2:2d:bd:dd:85:80:40:1b:2e:64:ba:6d:3f:6b:
         78:92:66:62:43:6e:4b:eb:27:ba:de:f4:85:19:09:ad:04:82:
         6c:b7:80:db:ee:da:36:27:18:88:c1:ea:6a:ec:00:b3:2e:48:
         e1:61:6c:ef:13:ee:59:12:4c:7a:75:3d:48:ae:0f:ed:a0:48:
         db:59:68:10:64:59:2f:48:15:56:90:4f:2f:66:de:20:d7:aa:
         43:b1:0c:d9:ee:a1:a5:da:85:3f:7f:92:69:fb:a4:a3:3a:a2:
         c6:63:dd:c4:94:5b:61:ae:be:66:53:bc:79:74:49:d9:88:51:
         b0:64:5e:24:d9:0e:9a:dc:95:0b:fa:0b:45:86:d5:65:5d:42:
         82:ad:ea:a9:ed:54:65:95:fe:da:39:92:eb:d0:42:c4:0a:ad:
         0c:09:bd:99:c1:18:e8:be:28:6d:c5:e3:73:ae:6c:ec:d4:fb:
         b3:84:54:fa:72:ae:72:f4:27:49:74:04:67:ed:9b:7b:9b:ae:
         6b:7c:9b:6e:58:67:22:1f:8c:a6:8c:04:0b:77:eb:74:15:f8:
         5a:a4:ae:2c:af:da:8a:eb:fe:a4:db:17:0d:f4:e0:78:1a:25:
         b6:1a:ec:28:94:35:9f:49:43:4c:21:0a:40:5d:48:d2:c1:08:
         0a:7b:42:d6:66:b2:62:bf:60:7a:bc:e9:75:a0:18:a2:04:b5:
         a3:26:8d:0e:32:f2:02:14:db:39:73:5a:84:c0:83:ea:fb:ad:
         c8:b3:b6:01:fe:48:0e:6e:a6:b0:64:8d:3b:a0:4c:77:cf:6a:
         a7:4f:ef:92:8d:78:9f:81:54:ef:5e:c0:c3:eb:c1:37:d4:14:
         b4:9c:ee:95:be:b6:c4:3f:73:bb:e7:a1:4e:b6:eb:1e:34:23:
         77:f0:55:2b:cb:e5:cb:93:a1:87:07:aa:19:9a:0f:07:a3:c3:
         7b:3b:cb:74:6b:0e:75:bf:57:11:ef:2f:64:e1:0c:8a:e1:c7:
         30:b2:3f:b4:4f:24:9e:1a:4a:47:b5:45:fb:71:ad:36:af:c4:
         3e:69:58:e5:6a:ff:f8:fb:bf:a6:5f:da:cb:f1:1b:3d:54:ae:
         fe:4d:53:dc:84:fc:30:cb:87:2e:3f:a7:79:83:ae:91:28:50:
         4b:34:50:9b:73:44:51:2b:cf:44:d5:2d:f6:0e:0a:68:d5:59:
         fc:bd:01:01:0f:d7:58:21:61:fa:d5:23:5d:ef:2a:00:2c:69:
         eb:95:51:22:b1:5f:6e:61:e9:d7:f8:20:6c:25:a3:42:6c:e8:
         16:a1:43:2b:f1:28:7f:7f:75:5d:22:08:86:25:df:89:47:3c:
         ec:9b:3d:3f:c8:0a:44:fe
-----BEGIN CERTIFICATE-----
MIIFkDCCA3igAwIBAgIBAjANBgkqhkiG9w0BAQUFADBtMRMwEQYDVQQKEwpNeSBD
b21wYW55MRAwDgYDVQQLEwdNeSBVbml0MRAwDgYDVQQHEwdNeSBUb3duMREwDwYD
VQQIEwhNeSBTdGF0ZTELMAkGA1UEBhMCVVMxEjAQBgNVBAMTCVNhbXBsZSBDQTAe
Fw0xNjA1MjYxNzUzNTZaFw0yNjA1MjQxNzUzNTZaMF0xCzAJBgNVBAYTAlVTMREw
DwYDVQQIEwhNeSBTdGF0ZTETMBEGA1UEChMKTXkgQ29tcGFueTESMBAGA1UECxMJ
d2ViLWFkbWluMRIwEAYDVQQDEwlsb2NhbGhvc3QwggIiMA0GCSqGSIb3DQEBAQUA
A4ICDwAwggIKAoICAQC77t+4EEmLiPqZId+LdXm3+X/m5V2/R8hR6x0OmYwg9CG7
Q+ktamFSVg5hjEQQd39/25YRwvQVKRnduw8oZU5gSCxrgS3qTldfMDdjfsZUC+6O
/jAENOggIawcTUO7xanxbiXMYsVuMbGCTvSMzJqb85eb9naBmDS8rrVltdJT9fLk
Xyz9LCOwHGxIreWnBScKZQ+LbHFbJGUrltlrc1YxCy8kTE6DglUN4EKcKN3gnVUF
RUjyrkD55OIQLz032MxpRqrSVP9lD+Toxv7A0thfSWs3ZGepr8V84rjXnyXc9ohK
6KG0D1KL/udTpWwMFVgzECBNNd/M/mbtzMihwBlc0TgBwBALIQU0gDGcAt2a531O
edR4J5S2nTbeqw/GlblH2z5QqNvEX/XmhpTm78fMDplo6yHfgSh5yiINjRAUs5ht
1Dd9CxewLPeONCHiukoNkluDkOEIhWoBfFoabm4Eg5XKCFgE6hSgM93csjcCxzwO
UwJq14l2CdAcGeror14xiu7z1dpq5KFsEMJsu0M2dd98QCcl9zD6EnQaKYqwL3cl
iTVbFdxWezF+EyBA43xwNVSD/NhjJ8uCgl+niBL1TS2/vUVD9bBf1ATLVb3my0Pp
elR9o+zlnWFD5dlrqTd2f7vaYqdBjgPdhmv6S95DIfKOj7Rtx6wSPICwtfQs+wID
AQABo0swSTAJBgNVHRMEAjAAMB0GA1UdDgQWBBRbN3HziYufb49AwiXdz3B2JQrw
hTAdBgNVHSUEFjAUBggrBgEFBQcDAQYIKwYBBQUHAwIwDQYJKoZIhvcNAQEFBQAD
ggIBADFO4lDiLb3dhYBAGy5kum0/a3iSZmJDbkvrJ7re9IUZCa0Egmy3gNvu2jYn
GIjB6mrsALMuSOFhbO8T7lkSTHp1PUiuD+2gSNtZaBBkWS9IFVaQTy9m3iDXqkOx
DNnuoaXahT9/kmn7pKM6osZj3cSUW2GuvmZTvHl0SdmIUbBkXiTZDprclQv6C0WG
1WVdQoKt6qntVGWV/to5kuvQQsQKrQwJvZnBGOi+KG3F43OubOzU+7OEVPpyrnL0
J0l0BGftm3ubrmt8m25YZyIfjKaMBAt363QV+Fqkriyv2orr/qTbFw304HgaJbYa
7CiUNZ9JQ0whCkBdSNLBCAp7QtZmsmK/YHq86XWgGKIEtaMmjQ4y8gIU2zlzWoTA
g+r7rciztgH+SA5uprBkjTugTHfPaqdP75KNeJ+BVO9ewMPrwTfUFLSc7pW+tsQ/
c7vnoU626x40I3fwVSvL5cuToYcHqhmaDwejw3s7y3RrDnW/VxHvL2ThDIrhxzCy
P7RPJJ4aSke1RftxrTavxD5pWOVq//j7v6Zf2svxGz1Urv5NU9yE/DDLhy4/p3mD
rpEoUEs0UJtzRFErz0TVLfYOCmjVWfy9AQEP11ghYfrVI13vKgAsaeuVUSKxX25h
6df4IGwlo0Js6BahQyvxKH9/dV0iCIYl34lHPOybPT/ICkT+
-----END CERTIFICATE-----
