Certificate:
    Data:
        Version: 3 (0x2)
        Serial Number: 1 (0x1)
    Signature Algorithm: sha1WithRSAEncryption
        Issuer: O=My Company, OU=My Unit, L=My Town, ST=My State, C=US, CN=Sample CA
        Validity
            Not Before: Jun 13 18:09:02 2016 GMT
            Not After : Jun 11 18:09:02 2026 GMT
        Subject: C=US, ST=My State, O=My Company, OU=zato-lb-agent, CN=localhost
        Subject Public Key Info:
            Public Key Algorithm: rsaEncryption
                Public-Key: (4096 bit)
                Modulus:
                    00:b4:ce:2c:3a:bd:b1:4f:86:71:05:cd:35:bf:21:
                    c1:d0:b9:ec:eb:73:59:fa:41:36:0f:a1:23:c1:15:
                    28:34:73:e1:c1:59:86:85:59:89:dd:c6:0d:34:cc:
                    2c:89:c9:a9:8a:2f:b5:68:da:f9:cf:a0:a5:66:e8:
                    fb:c3:75:cd:1f:7e:10:a6:af:31:78:86:95:6e:b5:
                    e7:87:3f:53:13:97:1f:4f:9a:4d:83:b4:84:f4:2a:
                    d9:f4:1e:bc:05:17:3b:59:2a:cc:4e:f8:5b:3e:68:
                    d4:9a:dd:d2:5e:d4:89:5c:df:88:44:cf:32:56:8b:
                    fd:f1:5a:be:db:49:2c:6f:cd:47:cd:bf:60:3b:81:
                    55:d5:fa:e4:94:f5:d1:1b:16:8d:d5:a2:b6:de:d0:
                    2c:84:8f:98:78:43:d8:6d:d1:27:32:d8:ae:89:9e:
                    99:cd:95:8a:0d:d0:86:48:07:fc:0b:fb:f9:22:63:
                    ae:5a:65:71:d0:b1:6a:48:94:a8:75:5d:16:60:c5:
                    a8:f0:61:95:13:7c:a0:e6:8f:b2:f5:6c:17:46:ca:
                    5d:fb:ad:4b:cb:cd:23:fc:21:e4:8a:df:7b:1c:91:
                    72:f5:71:c9:bb:af:af:53:2f:9c:04:2f:a2:3a:36:
                    1b:6f:57:86:85:f5:da:41:39:df:30:20:74:68:c9:
                    d6:80:00:59:34:5d:49:bf:d7:9c:b1:24:ca:20:81:
                    9f:cf:05:c2:ee:ef:ee:6f:12:61:2c:4d:b9:47:9b:
                    33:aa:85:0f:b3:50:2f:53:49:d9:90:c8:05:3e:3d:
                    b1:bd:01:64:54:26:6c:d7:20:f1:f0:76:66:93:96:
                    21:d5:8b:1e:e4:57:b1:d7:d4:2d:95:2f:2f:d7:29:
                    3d:44:ff:bf:9d:ae:26:92:d0:17:2e:e7:b0:e9:78:
                    f9:99:b4:83:ac:48:7e:74:23:94:bf:9f:61:09:62:
                    a2:a7:c6:02:9a:cd:84:75:e2:d5:27:a4:e3:4a:91:
                    ac:ed:90:49:9b:2b:ce:98:ff:3c:62:c7:ab:21:0c:
                    72:d0:07:23:20:d9:23:90:63:42:18:d0:4c:0a:e6:
                    c1:ed:36:fd:71:4c:ca:4c:32:d2:ff:bb:9c:42:a5:
                    80:be:f8:9b:59:1c:85:a5:24:1e:a7:f4:5b:1f:b6:
                    84:53:52:0b:8d:1e:ce:30:f3:ff:b7:a9:a7:11:2a:
                    cb:c1:71:f5:b7:b9:d2:9c:85:66:94:79:9f:20:74:
                    cc:86:3e:d9:0f:01:96:c5:05:85:4b:e6:f5:d0:70:
                    b0:e4:58:47:2c:24:05:c3:47:7e:86:0e:b9:9c:d1:
                    17:07:a1:9a:22:64:c1:55:e6:18:b5:0c:6d:43:43:
                    f6:b0:13
                Exponent: 65537 (0x10001)
        X509v3 extensions:
            X509v3 Basic Constraints: 
                CA:FALSE
            X509v3 Subject Key Identifier: 
                7F:EF:80:05:1D:F6:A9:52:33:40:B1:2E:57:8F:80:9A:5B:07:80:6D
            X509v3 Extended Key Usage: 
                TLS Web Server Authentication
    Signature Algorithm: sha1WithRSAEncryption
         b0:7c:e0:75:3a:22:28:df:d3:7a:a2:1d:64:23:30:db:5f:c7:
         e0:f8:f5:74:6b:5f:82:81:e7:09:08:03:16:17:1b:73:f6:95:
         eb:f0:3e:f8:8a:4d:0d:b2:e6:4c:40:f7:c3:e2:02:9b:d8:11:
         cf:7d:97:4f:9e:93:06:88:15:0e:88:3b:28:81:fb:4c:06:0f:
         9b:f3:98:81:8c:fa:bd:78:c8:49:4e:8b:3a:d5:69:be:fd:58:
         47:e0:14:a1:8b:b4:45:99:df:c3:23:0b:7d:d9:f0:ea:9f:d6:
         18:02:ec:95:06:03:23:e2:9c:0c:51:44:48:b2:62:aa:12:fc:
         41:e2:9f:ca:40:e3:1e:cf:40:a1:45:a9:40:bb:f9:31:6f:1e:
         ce:01:33:82:2c:86:82:2c:18:94:96:e0:4c:d1:cb:c2:90:02:
         28:d5:83:2a:5e:ab:2f:df:34:2a:93:54:bd:8a:1e:89:e2:44:
         9a:16:a1:0b:52:a1:a7:7a:a8:bd:0a:7a:ee:db:f3:a9:d9:5a:
         eb:3c:7f:f6:75:02:19:45:de:e2:fa:7d:88:6f:6b:55:29:03:
         2f:02:18:8f:77:bf:26:d6:89:7e:d7:52:bd:29:4a:cc:de:c6:
         fa:3e:c3:65:20:74:84:bb:fe:20:16:9a:e4:e2:bb:c4:73:2d:
         23:0e:d7:39:15:d2:66:ca:b6:06:e1:26:8a:22:cd:32:9b:06:
         0a:1a:89:8d:af:f4:44:5c:5f:87:7d:66:03:72:48:90:4e:77:
         1f:44:e7:e6:aa:00:40:9b:ff:9d:68:04:29:3c:88:5e:57:e5:
         f9:21:99:68:62:49:fe:22:f7:ce:1e:75:4d:db:5b:a5:29:0d:
         6f:7d:02:54:b3:25:47:2f:ec:50:0c:cb:20:06:b6:49:2c:19:
         d0:54:20:fb:b6:7f:2c:e5:aa:8d:97:f9:e6:0e:00:e0:90:47:
         4a:65:b9:f1:d8:e8:b3:28:95:1a:c1:a6:13:b9:3b:68:39:36:
         4b:08:6e:4b:24:42:e6:a4:26:61:8a:e5:e9:2b:30:1a:87:01:
         d7:a3:7d:aa:f1:f5:b0:3c:ff:8e:72:b7:04:a1:83:e9:01:4a:
         1a:ff:d8:c9:e4:71:10:f8:f6:dc:7d:b0:72:f6:72:7d:d3:ba:
         c2:1e:ee:7a:bb:a5:e8:99:6d:93:00:73:f7:e7:6d:d9:ef:80:
         3a:27:f8:ac:e7:06:cf:90:35:92:5f:53:e9:ea:40:49:e5:68:
         fa:b9:d0:b9:35:c8:37:9f:ce:89:5b:84:9e:86:26:dd:c8:14:
         54:0d:6a:e5:97:58:f6:47:af:cd:84:94:16:2a:00:b7:b4:25:
         73:35:53:04:a5:85:d4:3e
-----BEGIN CERTIFICATE-----
MIIFijCCA3KgAwIBAgIBATANBgkqhkiG9w0BAQUFADBtMRMwEQYDVQQKEwpNeSBD
b21wYW55MRAwDgYDVQQLEwdNeSBVbml0MRAwDgYDVQQHEwdNeSBUb3duMREwDwYD
VQQIEwhNeSBTdGF0ZTELMAkGA1UEBhMCVVMxEjAQBgNVBAMTCVNhbXBsZSBDQTAe
Fw0xNjA2MTMxODA5MDJaFw0yNjA2MTExODA5MDJaMGExCzAJBgNVBAYTAlVTMREw
DwYDVQQIEwhNeSBTdGF0ZTETMBEGA1UEChMKTXkgQ29tcGFueTEWMBQGA1UECxMN
emF0by1sYi1hZ2VudDESMBAGA1UEAxMJbG9jYWxob3N0MIICIjANBgkqhkiG9w0B
AQEFAAOCAg8AMIICCgKCAgEAtM4sOr2xT4ZxBc01vyHB0Lns63NZ+kE2D6EjwRUo
NHPhwVmGhVmJ3cYNNMwsicmpii+1aNr5z6ClZuj7w3XNH34Qpq8xeIaVbrXnhz9T
E5cfT5pNg7SE9CrZ9B68BRc7WSrMTvhbPmjUmt3SXtSJXN+IRM8yVov98Vq+20ks
b81Hzb9gO4FV1frklPXRGxaN1aK23tAshI+YeEPYbdEnMtiuiZ6ZzZWKDdCGSAf8
C/v5ImOuWmVx0LFqSJSodV0WYMWo8GGVE3yg5o+y9WwXRspd+61Ly80j/CHkit97
HJFy9XHJu6+vUy+cBC+iOjYbb1eGhfXaQTnfMCB0aMnWgABZNF1Jv9ecsSTKIIGf
zwXC7u/ubxJhLE25R5szqoUPs1AvU0nZkMgFPj2xvQFkVCZs1yDx8HZmk5Yh1Yse
5Fex19QtlS8v1yk9RP+/na4mktAXLuew6Xj5mbSDrEh+dCOUv59hCWKip8YCms2E
deLVJ6TjSpGs7ZBJmyvOmP88YserIQxy0AcjINkjkGNCGNBMCubB7Tb9cUzKTDLS
/7ucQqWAvvibWRyFpSQep/RbH7aEU1ILjR7OMPP/t6mnESrLwXH1t7nSnIVmlHmf
IHTMhj7ZDwGWxQWFS+b10HCw5FhHLCQFw0d+hg65nNEXB6GaImTBVeYYtQxtQ0P2
sBMCAwEAAaNBMD8wCQYDVR0TBAIwADAdBgNVHQ4EFgQUf++ABR32qVIzQLEuV4+A
mlsHgG0wEwYDVR0lBAwwCgYIKwYBBQUHAwEwDQYJKoZIhvcNAQEFBQADggIBALB8
4HU6Iijf03qiHWQjMNtfx+D49XRrX4KB5wkIAxYXG3P2levwPviKTQ2y5kxA98Pi
ApvYEc99l0+ekwaIFQ6IOyiB+0wGD5vzmIGM+r14yElOizrVab79WEfgFKGLtEWZ
38MjC33Z8Oqf1hgC7JUGAyPinAxRREiyYqoS/EHin8pA4x7PQKFFqUC7+TFvHs4B
M4IshoIsGJSW4EzRy8KQAijVgypeqy/fNCqTVL2KHoniRJoWoQtSoad6qL0Keu7b
86nZWus8f/Z1AhlF3uL6fYhva1UpAy8CGI93vybWiX7XUr0pSszexvo+w2UgdIS7
/iAWmuTiu8RzLSMO1zkV0mbKtgbhJooizTKbBgoaiY2v9ERcX4d9ZgNySJBOdx9E
5+aqAECb/51oBCk8iF5X5fkhmWhiSf4i984edU3bW6UpDW99AlSzJUcv7FAMyyAG
tkksGdBUIPu2fyzlqo2X+eYOAOCQR0plufHY6LMolRrBphO5O2g5NksIbkskQuak
JmGK5ekrMBqHAdejfarx9bA8/45ytwShg+kBShr/2MnkcRD49tx9sHL2cn3TusIe
7nq7peiZbZMAc/fnbdnvgDon+KznBs+QNZJfU+nqQEnlaPq50Lk1yDefzolbhJ6G
Jt3IFFQNauWXWPZHr82ElBYqALe0JXM1UwSlhdQ+
-----END CERTIFICATE-----
